
SERVO_ECU.elf:     file format elf32-avr

Sections:
Idx Name          Size      VMA       LMA       File off  Algn
  0 .text         00000d78  00000000  00000000  00000094  2**1
                  CONTENTS, ALLOC, LOAD, READONLY, CODE
  1 .data         00000008  00800060  00000d78  00000e0c  2**0
                  CONTENTS, ALLOC, LOAD, DATA
  2 .bss          00000052  00800068  00800068  00000e14  2**0
                  ALLOC
  3 .comment      00000030  00000000  00000000  00000e14  2**0
                  CONTENTS, READONLY
  4 .note.gnu.avr.deviceinfo 0000003c  00000000  00000000  00000e44  2**2
                  CONTENTS, READONLY
  5 .debug_aranges 000002c0  00000000  00000000  00000e80  2**0
                  CONTENTS, READONLY, DEBUGGING
  6 .debug_info   00003f2d  00000000  00000000  00001140  2**0
                  CONTENTS, READONLY, DEBUGGING
  7 .debug_abbrev 000010ba  00000000  00000000  0000506d  2**0
                  CONTENTS, READONLY, DEBUGGING
  8 .debug_line   00001e00  00000000  00000000  00006127  2**0
                  CONTENTS, READONLY, DEBUGGING
  9 .debug_frame  00000870  00000000  00000000  00007f28  2**2
                  CONTENTS, READONLY, DEBUGGING
 10 .debug_str    0000179c  00000000  00000000  00008798  2**0
                  CONTENTS, READONLY, DEBUGGING
 11 .debug_loc    00002f74  00000000  00000000  00009f34  2**0
                  CONTENTS, READONLY, DEBUGGING
 12 .debug_ranges 000002c8  00000000  00000000  0000cea8  2**0
                  CONTENTS, READONLY, DEBUGGING

Disassembly of section .text:

00000000 <__vectors>:
   0:	0c 94 2a 00 	jmp	0x54	; 0x54 <__ctors_end>
   4:	0c 94 47 00 	jmp	0x8e	; 0x8e <__bad_interrupt>
   8:	0c 94 47 00 	jmp	0x8e	; 0x8e <__bad_interrupt>
   c:	0c 94 47 00 	jmp	0x8e	; 0x8e <__bad_interrupt>
  10:	0c 94 47 00 	jmp	0x8e	; 0x8e <__bad_interrupt>
  14:	0c 94 47 00 	jmp	0x8e	; 0x8e <__bad_interrupt>
  18:	0c 94 47 00 	jmp	0x8e	; 0x8e <__bad_interrupt>
  1c:	0c 94 b4 03 	jmp	0x768	; 0x768 <__vector_7>
  20:	0c 94 47 00 	jmp	0x8e	; 0x8e <__bad_interrupt>
  24:	0c 94 47 00 	jmp	0x8e	; 0x8e <__bad_interrupt>
  28:	0c 94 47 00 	jmp	0x8e	; 0x8e <__bad_interrupt>
  2c:	0c 94 47 00 	jmp	0x8e	; 0x8e <__bad_interrupt>
  30:	0c 94 47 00 	jmp	0x8e	; 0x8e <__bad_interrupt>
  34:	0c 94 30 02 	jmp	0x460	; 0x460 <__vector_13>
  38:	0c 94 47 00 	jmp	0x8e	; 0x8e <__bad_interrupt>
  3c:	0c 94 47 00 	jmp	0x8e	; 0x8e <__bad_interrupt>
  40:	0c 94 47 00 	jmp	0x8e	; 0x8e <__bad_interrupt>
  44:	0c 94 47 00 	jmp	0x8e	; 0x8e <__bad_interrupt>
  48:	0c 94 47 00 	jmp	0x8e	; 0x8e <__bad_interrupt>
  4c:	0c 94 47 00 	jmp	0x8e	; 0x8e <__bad_interrupt>
  50:	0c 94 47 00 	jmp	0x8e	; 0x8e <__bad_interrupt>

00000054 <__ctors_end>:
  54:	11 24       	eor	r1, r1
  56:	1f be       	out	0x3f, r1	; 63
  58:	cf e5       	ldi	r28, 0x5F	; 95
  5a:	d8 e0       	ldi	r29, 0x08	; 8
  5c:	de bf       	out	0x3e, r29	; 62
  5e:	cd bf       	out	0x3d, r28	; 61

00000060 <__do_copy_data>:
  60:	10 e0       	ldi	r17, 0x00	; 0
  62:	a0 e6       	ldi	r26, 0x60	; 96
  64:	b0 e0       	ldi	r27, 0x00	; 0
  66:	e8 e7       	ldi	r30, 0x78	; 120
  68:	fd e0       	ldi	r31, 0x0D	; 13
  6a:	02 c0       	rjmp	.+4      	; 0x70 <__do_copy_data+0x10>
  6c:	05 90       	lpm	r0, Z+
  6e:	0d 92       	st	X+, r0
  70:	a8 36       	cpi	r26, 0x68	; 104
  72:	b1 07       	cpc	r27, r17
  74:	d9 f7       	brne	.-10     	; 0x6c <__do_copy_data+0xc>

00000076 <__do_clear_bss>:
  76:	20 e0       	ldi	r18, 0x00	; 0
  78:	a8 e6       	ldi	r26, 0x68	; 104
  7a:	b0 e0       	ldi	r27, 0x00	; 0
  7c:	01 c0       	rjmp	.+2      	; 0x80 <.do_clear_bss_start>

0000007e <.do_clear_bss_loop>:
  7e:	1d 92       	st	X+, r1

00000080 <.do_clear_bss_start>:
  80:	aa 3b       	cpi	r26, 0xBA	; 186
  82:	b2 07       	cpc	r27, r18
  84:	e1 f7       	brne	.-8      	; 0x7e <.do_clear_bss_loop>
  86:	0e 94 b4 02 	call	0x568	; 0x568 <main>
  8a:	0c 94 ba 06 	jmp	0xd74	; 0xd74 <_exit>

0000008e <__bad_interrupt>:
  8e:	0c 94 00 00 	jmp	0	; 0x0 <__vectors>

00000092 <pwm_init>:

#define ON_PWM_SRC(PORT,PIN) (PORT |= (1<<PIN) )
#define OFF_PWM_SRC(PORT,PIN) (PORT &=~ (1<<PIN) )

pwm_error_t pwm_init(st_pwm_object *pwm_obj,timer_bases_t pwm_base,pwm_output_mode_t pwm_mode,pwm_operating_mode_t pwm_op_mode,msa_u32 pwm_freq,pwm_duty_cycle_t pwm_duty_cycle)
{
  92:	4f 92       	push	r4
  94:	5f 92       	push	r5
  96:	6f 92       	push	r6
  98:	7f 92       	push	r7
  9a:	9f 92       	push	r9
  9c:	af 92       	push	r10
  9e:	bf 92       	push	r11
  a0:	cf 92       	push	r12
  a2:	df 92       	push	r13
  a4:	ef 92       	push	r14
  a6:	ff 92       	push	r15
  a8:	0f 93       	push	r16
  aa:	1f 93       	push	r17
  ac:	cf 93       	push	r28
  ae:	df 93       	push	r29
  b0:	ec 01       	movw	r28, r24
  b2:	d6 2e       	mov	r13, r22
  b4:	94 2e       	mov	r9, r20
  b6:	c8 01       	movw	r24, r16
  b8:	b7 01       	movw	r22, r14
		 ( (pwm_duty_cycle >= 0) || (pwm_duty_cycle <= 100) )
       )
	{
#endif
		//store data in the reference object
		pwm_obj->pwm_base_obj=pwm_base;
  ba:	d8 82       	st	Y, r13
		pwm_obj->pwm_duty_cycle_obj=pwm_duty_cycle;
  bc:	cf 82       	std	Y+7, r12	; 0x07
		pwm_obj->pwm_freq_obj=pwm_freq;
  be:	eb 82       	std	Y+3, r14	; 0x03
  c0:	fc 82       	std	Y+4, r15	; 0x04
  c2:	0d 83       	std	Y+5, r16	; 0x05
  c4:	1e 83       	std	Y+6, r17	; 0x06
		pwm_obj->pwm_mode_obj=pwm_mode;
  c6:	49 83       	std	Y+1, r20	; 0x01
		pwm_obj->pwm_op_mode_obj=pwm_op_mode;
  c8:	2a 83       	std	Y+2, r18	; 0x02
		pwm_obj->pwm_module_config_state_obj=CONFIGED;
  ca:	31 e0       	ldi	r19, 0x01	; 1
  cc:	39 87       	std	Y+9, r19	; 0x09
		
		//initialization
		msa_u16 OcrRegVal;
		msa_f32  PrescalerNeeded; 
		//getting the prescaler and the OCR register value needed
		if (pwm_op_mode == FAST_PWM)
  ce:	23 30       	cpi	r18, 0x03	; 3
  d0:	51 f5       	brne	.+84     	; 0x126 <pwm_init+0x94>
		{
			PrescalerNeeded=(msa_f32)((msa_f32)Fosc/((msa_f32)pwm_freq*(msa_f32)256));
  d2:	0e 94 6e 05 	call	0xadc	; 0xadc <__floatunsisf>
  d6:	20 e0       	ldi	r18, 0x00	; 0
  d8:	30 e0       	ldi	r19, 0x00	; 0
  da:	40 e8       	ldi	r20, 0x80	; 128
  dc:	53 e4       	ldi	r21, 0x43	; 67
  de:	0e 94 25 06 	call	0xc4a	; 0xc4a <__mulsf3>
  e2:	9b 01       	movw	r18, r22
  e4:	ac 01       	movw	r20, r24
  e6:	60 e0       	ldi	r22, 0x00	; 0
  e8:	74 e2       	ldi	r23, 0x24	; 36
  ea:	84 ef       	ldi	r24, 0xF4	; 244
  ec:	9a e4       	ldi	r25, 0x4A	; 74
  ee:	0e 94 fc 04 	call	0x9f8	; 0x9f8 <__divsf3>
  f2:	2b 01       	movw	r4, r22
  f4:	3c 01       	movw	r6, r24
			
			if (pwm_mode == NON_INVERTED)
  f6:	22 e0       	ldi	r18, 0x02	; 2
  f8:	92 12       	cpse	r9, r18
  fa:	0a c0       	rjmp	.+20     	; 0x110 <pwm_init+0x7e>
			{
				OcrRegVal=(((pwm_duty_cycle*256)/100)-1);
  fc:	9c 2d       	mov	r25, r12
  fe:	80 e0       	ldi	r24, 0x00	; 0
 100:	64 e6       	ldi	r22, 0x64	; 100
 102:	70 e0       	ldi	r23, 0x00	; 0
 104:	0e 94 92 06 	call	0xd24	; 0xd24 <__divmodhi4>
 108:	8b 01       	movw	r16, r22
 10a:	01 50       	subi	r16, 0x01	; 1
 10c:	11 09       	sbc	r17, r1
 10e:	36 c0       	rjmp	.+108    	; 0x17c <pwm_init+0xea>
			}
			else //inverted
			{
				OcrRegVal=255-((256*pwm_duty_cycle)/100);
 110:	9c 2d       	mov	r25, r12
 112:	80 e0       	ldi	r24, 0x00	; 0
 114:	64 e6       	ldi	r22, 0x64	; 100
 116:	70 e0       	ldi	r23, 0x00	; 0
 118:	0e 94 92 06 	call	0xd24	; 0xd24 <__divmodhi4>
 11c:	0f ef       	ldi	r16, 0xFF	; 255
 11e:	10 e0       	ldi	r17, 0x00	; 0
 120:	06 1b       	sub	r16, r22
 122:	17 0b       	sbc	r17, r23
 124:	2b c0       	rjmp	.+86     	; 0x17c <pwm_init+0xea>
			}
		}
		else //phase_correct
		{
			PrescalerNeeded=(msa_f32)((msa_f32)Fosc/((msa_f32)pwm_freq*(msa_f32)510));
 126:	0e 94 6e 05 	call	0xadc	; 0xadc <__floatunsisf>
 12a:	20 e0       	ldi	r18, 0x00	; 0
 12c:	30 e0       	ldi	r19, 0x00	; 0
 12e:	4f ef       	ldi	r20, 0xFF	; 255
 130:	53 e4       	ldi	r21, 0x43	; 67
 132:	0e 94 25 06 	call	0xc4a	; 0xc4a <__mulsf3>
 136:	9b 01       	movw	r18, r22
 138:	ac 01       	movw	r20, r24
 13a:	60 e0       	ldi	r22, 0x00	; 0
 13c:	74 e2       	ldi	r23, 0x24	; 36
 13e:	84 ef       	ldi	r24, 0xF4	; 244
 140:	9a e4       	ldi	r25, 0x4A	; 74
 142:	0e 94 fc 04 	call	0x9f8	; 0x9f8 <__divsf3>
 146:	2b 01       	movw	r4, r22
 148:	3c 01       	movw	r6, r24
			
			if (pwm_mode == NON_INVERTED)
 14a:	52 e0       	ldi	r21, 0x02	; 2
 14c:	95 12       	cpse	r9, r21
 14e:	0a c0       	rjmp	.+20     	; 0x164 <pwm_init+0xd2>
			{
				OcrRegVal=((pwm_duty_cycle*255)/100);
 150:	2f ef       	ldi	r18, 0xFF	; 255
 152:	c2 9e       	mul	r12, r18
 154:	c0 01       	movw	r24, r0
 156:	11 24       	eor	r1, r1
 158:	64 e6       	ldi	r22, 0x64	; 100
 15a:	70 e0       	ldi	r23, 0x00	; 0
 15c:	0e 94 92 06 	call	0xd24	; 0xd24 <__divmodhi4>
 160:	8b 01       	movw	r16, r22
 162:	0c c0       	rjmp	.+24     	; 0x17c <pwm_init+0xea>
			}
			else //inverted
			{
				OcrRegVal=255-((255*pwm_duty_cycle)/100);
 164:	5f ef       	ldi	r21, 0xFF	; 255
 166:	c5 9e       	mul	r12, r21
 168:	c0 01       	movw	r24, r0
 16a:	11 24       	eor	r1, r1
 16c:	64 e6       	ldi	r22, 0x64	; 100
 16e:	70 e0       	ldi	r23, 0x00	; 0
 170:	0e 94 92 06 	call	0xd24	; 0xd24 <__divmodhi4>
 174:	0f ef       	ldi	r16, 0xFF	; 255
 176:	10 e0       	ldi	r17, 0x00	; 0
 178:	06 1b       	sub	r16, r22
 17a:	17 0b       	sbc	r17, r23
			}
		}
			 if (  PrescalerNeeded < (msa_f32)1.0) pwm_obj->prescaler_obj=NO_PRESCALER;
 17c:	20 e0       	ldi	r18, 0x00	; 0
 17e:	30 e0       	ldi	r19, 0x00	; 0
 180:	40 e8       	ldi	r20, 0x80	; 128
 182:	5f e3       	ldi	r21, 0x3F	; 63
 184:	c3 01       	movw	r24, r6
 186:	b2 01       	movw	r22, r4
 188:	0e 94 f7 04 	call	0x9ee	; 0x9ee <__cmpsf2>
 18c:	88 23       	and	r24, r24
 18e:	24 f4       	brge	.+8      	; 0x198 <pwm_init+0x106>
 190:	81 e0       	ldi	r24, 0x01	; 1
 192:	88 87       	std	Y+8, r24	; 0x08
#define ON_PWM_SRC(PORT,PIN) (PORT |= (1<<PIN) )
#define OFF_PWM_SRC(PORT,PIN) (PORT &=~ (1<<PIN) )

pwm_error_t pwm_init(st_pwm_object *pwm_obj,timer_bases_t pwm_base,pwm_output_mode_t pwm_mode,pwm_operating_mode_t pwm_op_mode,msa_u32 pwm_freq,pwm_duty_cycle_t pwm_duty_cycle)
{
	pwm_error_t ret_val=NO_PWM_ERRORS;
 194:	80 e0       	ldi	r24, 0x00	; 0
 196:	63 c0       	rjmp	.+198    	; 0x25e <pwm_init+0x1cc>
			{
				OcrRegVal=255-((255*pwm_duty_cycle)/100);
			}
		}
			 if (  PrescalerNeeded < (msa_f32)1.0) pwm_obj->prescaler_obj=NO_PRESCALER;
		else if ( (PrescalerNeeded > (msa_f32)1.0) && (PrescalerNeeded <(msa_f32)8.0) ) pwm_obj->prescaler_obj=PRESCALER_8;
 198:	20 e0       	ldi	r18, 0x00	; 0
 19a:	30 e0       	ldi	r19, 0x00	; 0
 19c:	40 e8       	ldi	r20, 0x80	; 128
 19e:	5f e3       	ldi	r21, 0x3F	; 63
 1a0:	c3 01       	movw	r24, r6
 1a2:	b2 01       	movw	r22, r4
 1a4:	0e 94 20 06 	call	0xc40	; 0xc40 <__gesf2>
 1a8:	18 16       	cp	r1, r24
 1aa:	74 f4       	brge	.+28     	; 0x1c8 <pwm_init+0x136>
 1ac:	20 e0       	ldi	r18, 0x00	; 0
 1ae:	30 e0       	ldi	r19, 0x00	; 0
 1b0:	40 e0       	ldi	r20, 0x00	; 0
 1b2:	51 e4       	ldi	r21, 0x41	; 65
 1b4:	c3 01       	movw	r24, r6
 1b6:	b2 01       	movw	r22, r4
 1b8:	0e 94 f7 04 	call	0x9ee	; 0x9ee <__cmpsf2>
 1bc:	88 23       	and	r24, r24
 1be:	24 f4       	brge	.+8      	; 0x1c8 <pwm_init+0x136>
 1c0:	82 e0       	ldi	r24, 0x02	; 2
 1c2:	88 87       	std	Y+8, r24	; 0x08
#define ON_PWM_SRC(PORT,PIN) (PORT |= (1<<PIN) )
#define OFF_PWM_SRC(PORT,PIN) (PORT &=~ (1<<PIN) )

pwm_error_t pwm_init(st_pwm_object *pwm_obj,timer_bases_t pwm_base,pwm_output_mode_t pwm_mode,pwm_operating_mode_t pwm_op_mode,msa_u32 pwm_freq,pwm_duty_cycle_t pwm_duty_cycle)
{
	pwm_error_t ret_val=NO_PWM_ERRORS;
 1c4:	80 e0       	ldi	r24, 0x00	; 0
			{
				OcrRegVal=255-((255*pwm_duty_cycle)/100);
			}
		}
			 if (  PrescalerNeeded < (msa_f32)1.0) pwm_obj->prescaler_obj=NO_PRESCALER;
		else if ( (PrescalerNeeded > (msa_f32)1.0) && (PrescalerNeeded <(msa_f32)8.0) ) pwm_obj->prescaler_obj=PRESCALER_8;
 1c6:	4b c0       	rjmp	.+150    	; 0x25e <pwm_init+0x1cc>
		else if ( (PrescalerNeeded > (msa_f32)8.0) && (PrescalerNeeded <(msa_f32)64.0) ) pwm_obj->prescaler_obj=PRESCALER_64;
 1c8:	20 e0       	ldi	r18, 0x00	; 0
 1ca:	30 e0       	ldi	r19, 0x00	; 0
 1cc:	40 e0       	ldi	r20, 0x00	; 0
 1ce:	51 e4       	ldi	r21, 0x41	; 65
 1d0:	c3 01       	movw	r24, r6
 1d2:	b2 01       	movw	r22, r4
 1d4:	0e 94 20 06 	call	0xc40	; 0xc40 <__gesf2>
 1d8:	18 16       	cp	r1, r24
 1da:	74 f4       	brge	.+28     	; 0x1f8 <pwm_init+0x166>
 1dc:	20 e0       	ldi	r18, 0x00	; 0
 1de:	30 e0       	ldi	r19, 0x00	; 0
 1e0:	40 e8       	ldi	r20, 0x80	; 128
 1e2:	52 e4       	ldi	r21, 0x42	; 66
 1e4:	c3 01       	movw	r24, r6
 1e6:	b2 01       	movw	r22, r4
 1e8:	0e 94 f7 04 	call	0x9ee	; 0x9ee <__cmpsf2>
 1ec:	88 23       	and	r24, r24
 1ee:	24 f4       	brge	.+8      	; 0x1f8 <pwm_init+0x166>
 1f0:	83 e0       	ldi	r24, 0x03	; 3
 1f2:	88 87       	std	Y+8, r24	; 0x08
#define ON_PWM_SRC(PORT,PIN) (PORT |= (1<<PIN) )
#define OFF_PWM_SRC(PORT,PIN) (PORT &=~ (1<<PIN) )

pwm_error_t pwm_init(st_pwm_object *pwm_obj,timer_bases_t pwm_base,pwm_output_mode_t pwm_mode,pwm_operating_mode_t pwm_op_mode,msa_u32 pwm_freq,pwm_duty_cycle_t pwm_duty_cycle)
{
	pwm_error_t ret_val=NO_PWM_ERRORS;
 1f4:	80 e0       	ldi	r24, 0x00	; 0
				OcrRegVal=255-((255*pwm_duty_cycle)/100);
			}
		}
			 if (  PrescalerNeeded < (msa_f32)1.0) pwm_obj->prescaler_obj=NO_PRESCALER;
		else if ( (PrescalerNeeded > (msa_f32)1.0) && (PrescalerNeeded <(msa_f32)8.0) ) pwm_obj->prescaler_obj=PRESCALER_8;
		else if ( (PrescalerNeeded > (msa_f32)8.0) && (PrescalerNeeded <(msa_f32)64.0) ) pwm_obj->prescaler_obj=PRESCALER_64;
 1f6:	33 c0       	rjmp	.+102    	; 0x25e <pwm_init+0x1cc>
		else if ( (PrescalerNeeded > (msa_f32)64.0) && (PrescalerNeeded <(msa_f32)256.0) ) pwm_obj->prescaler_obj=PRESCALER_256;
 1f8:	20 e0       	ldi	r18, 0x00	; 0
 1fa:	30 e0       	ldi	r19, 0x00	; 0
 1fc:	40 e8       	ldi	r20, 0x80	; 128
 1fe:	52 e4       	ldi	r21, 0x42	; 66
 200:	c3 01       	movw	r24, r6
 202:	b2 01       	movw	r22, r4
 204:	0e 94 20 06 	call	0xc40	; 0xc40 <__gesf2>
 208:	18 16       	cp	r1, r24
 20a:	74 f4       	brge	.+28     	; 0x228 <pwm_init+0x196>
 20c:	20 e0       	ldi	r18, 0x00	; 0
 20e:	30 e0       	ldi	r19, 0x00	; 0
 210:	40 e8       	ldi	r20, 0x80	; 128
 212:	53 e4       	ldi	r21, 0x43	; 67
 214:	c3 01       	movw	r24, r6
 216:	b2 01       	movw	r22, r4
 218:	0e 94 f7 04 	call	0x9ee	; 0x9ee <__cmpsf2>
 21c:	88 23       	and	r24, r24
 21e:	24 f4       	brge	.+8      	; 0x228 <pwm_init+0x196>
 220:	84 e0       	ldi	r24, 0x04	; 4
 222:	88 87       	std	Y+8, r24	; 0x08
#define ON_PWM_SRC(PORT,PIN) (PORT |= (1<<PIN) )
#define OFF_PWM_SRC(PORT,PIN) (PORT &=~ (1<<PIN) )

pwm_error_t pwm_init(st_pwm_object *pwm_obj,timer_bases_t pwm_base,pwm_output_mode_t pwm_mode,pwm_operating_mode_t pwm_op_mode,msa_u32 pwm_freq,pwm_duty_cycle_t pwm_duty_cycle)
{
	pwm_error_t ret_val=NO_PWM_ERRORS;
 224:	80 e0       	ldi	r24, 0x00	; 0
			}
		}
			 if (  PrescalerNeeded < (msa_f32)1.0) pwm_obj->prescaler_obj=NO_PRESCALER;
		else if ( (PrescalerNeeded > (msa_f32)1.0) && (PrescalerNeeded <(msa_f32)8.0) ) pwm_obj->prescaler_obj=PRESCALER_8;
		else if ( (PrescalerNeeded > (msa_f32)8.0) && (PrescalerNeeded <(msa_f32)64.0) ) pwm_obj->prescaler_obj=PRESCALER_64;
		else if ( (PrescalerNeeded > (msa_f32)64.0) && (PrescalerNeeded <(msa_f32)256.0) ) pwm_obj->prescaler_obj=PRESCALER_256;
 226:	1b c0       	rjmp	.+54     	; 0x25e <pwm_init+0x1cc>
		else if ( (PrescalerNeeded > (msa_f32)256.0) && (PrescalerNeeded <(msa_f32)1024.0) ) pwm_obj->prescaler_obj=PRESCALER_1024;
 228:	20 e0       	ldi	r18, 0x00	; 0
 22a:	30 e0       	ldi	r19, 0x00	; 0
 22c:	40 e8       	ldi	r20, 0x80	; 128
 22e:	53 e4       	ldi	r21, 0x43	; 67
 230:	c3 01       	movw	r24, r6
 232:	b2 01       	movw	r22, r4
 234:	0e 94 20 06 	call	0xc40	; 0xc40 <__gesf2>
 238:	18 16       	cp	r1, r24
 23a:	74 f4       	brge	.+28     	; 0x258 <pwm_init+0x1c6>
 23c:	20 e0       	ldi	r18, 0x00	; 0
 23e:	30 e0       	ldi	r19, 0x00	; 0
 240:	40 e8       	ldi	r20, 0x80	; 128
 242:	54 e4       	ldi	r21, 0x44	; 68
 244:	c3 01       	movw	r24, r6
 246:	b2 01       	movw	r22, r4
 248:	0e 94 f7 04 	call	0x9ee	; 0x9ee <__cmpsf2>
 24c:	88 23       	and	r24, r24
 24e:	34 f4       	brge	.+12     	; 0x25c <pwm_init+0x1ca>
 250:	85 e0       	ldi	r24, 0x05	; 5
 252:	88 87       	std	Y+8, r24	; 0x08
#define ON_PWM_SRC(PORT,PIN) (PORT |= (1<<PIN) )
#define OFF_PWM_SRC(PORT,PIN) (PORT &=~ (1<<PIN) )

pwm_error_t pwm_init(st_pwm_object *pwm_obj,timer_bases_t pwm_base,pwm_output_mode_t pwm_mode,pwm_operating_mode_t pwm_op_mode,msa_u32 pwm_freq,pwm_duty_cycle_t pwm_duty_cycle)
{
	pwm_error_t ret_val=NO_PWM_ERRORS;
 254:	80 e0       	ldi	r24, 0x00	; 0
		}
			 if (  PrescalerNeeded < (msa_f32)1.0) pwm_obj->prescaler_obj=NO_PRESCALER;
		else if ( (PrescalerNeeded > (msa_f32)1.0) && (PrescalerNeeded <(msa_f32)8.0) ) pwm_obj->prescaler_obj=PRESCALER_8;
		else if ( (PrescalerNeeded > (msa_f32)8.0) && (PrescalerNeeded <(msa_f32)64.0) ) pwm_obj->prescaler_obj=PRESCALER_64;
		else if ( (PrescalerNeeded > (msa_f32)64.0) && (PrescalerNeeded <(msa_f32)256.0) ) pwm_obj->prescaler_obj=PRESCALER_256;
		else if ( (PrescalerNeeded > (msa_f32)256.0) && (PrescalerNeeded <(msa_f32)1024.0) ) pwm_obj->prescaler_obj=PRESCALER_1024;
 256:	03 c0       	rjmp	.+6      	; 0x25e <pwm_init+0x1cc>
		else ret_val=THE_NEEDED_PRESCALER_IMPOSSIBLE; 
 258:	82 e0       	ldi	r24, 0x02	; 2
 25a:	01 c0       	rjmp	.+2      	; 0x25e <pwm_init+0x1cc>
 25c:	82 e0       	ldi	r24, 0x02	; 2
		
		
		*(volatile msa_u8*)(pwm_obj->pwm_base_obj)|= pwm_obj->prescaler_obj;
 25e:	ed 2d       	mov	r30, r13
 260:	f0 e0       	ldi	r31, 0x00	; 0
 262:	20 81       	ld	r18, Z
 264:	98 85       	ldd	r25, Y+8	; 0x08
 266:	92 2b       	or	r25, r18
 268:	90 83       	st	Z, r25
		*(volatile msa_u8*)(pwm_obj->pwm_base_obj)|= ( (( (pwm_obj->pwm_op_mode_obj) & 0x02)<< WGMn1) |((( (pwm_obj->pwm_op_mode_obj) & 0x01)<<WGMn0)) );
 26a:	e8 81       	ld	r30, Y
 26c:	f0 e0       	ldi	r31, 0x00	; 0
 26e:	20 81       	ld	r18, Z
 270:	3a 81       	ldd	r19, Y+2	; 0x02
 272:	93 2f       	mov	r25, r19
 274:	92 70       	andi	r25, 0x02	; 2
 276:	99 0f       	add	r25, r25
 278:	99 0f       	add	r25, r25
 27a:	92 2b       	or	r25, r18
 27c:	30 fb       	bst	r19, 0
 27e:	aa 24       	eor	r10, r10
 280:	a0 f8       	bld	r10, 0
 282:	b1 2c       	mov	r11, r1
 284:	00 24       	eor	r0, r0
 286:	b6 94       	lsr	r11
 288:	a7 94       	ror	r10
 28a:	07 94       	ror	r0
 28c:	b6 94       	lsr	r11
 28e:	a7 94       	ror	r10
 290:	07 94       	ror	r0
 292:	ba 2c       	mov	r11, r10
 294:	a0 2c       	mov	r10, r0
 296:	a9 2a       	or	r10, r25
 298:	a0 82       	st	Z, r10
		*(volatile msa_u8*)(pwm_obj->pwm_base_obj)|= ( (pwm_obj->pwm_mode_obj)<<COMn); 
 29a:	e8 81       	ld	r30, Y
 29c:	f0 e0       	ldi	r31, 0x00	; 0
 29e:	40 81       	ld	r20, Z
 2a0:	99 81       	ldd	r25, Y+1	; 0x01
 2a2:	50 e1       	ldi	r21, 0x10	; 16
 2a4:	95 9f       	mul	r25, r21
 2a6:	90 01       	movw	r18, r0
 2a8:	11 24       	eor	r1, r1
 2aa:	24 2b       	or	r18, r20
 2ac:	20 83       	st	Z, r18
		if (pwm_base == TIMER_0)
 2ae:	93 e5       	ldi	r25, 0x53	; 83
 2b0:	d9 12       	cpse	r13, r25
 2b2:	02 c0       	rjmp	.+4      	; 0x2b8 <pwm_init+0x226>
		{
			OCR0=OcrRegVal;
 2b4:	0c bf       	out	0x3c, r16	; 60
 2b6:	04 c0       	rjmp	.+8      	; 0x2c0 <pwm_init+0x22e>
		}
		else if (pwm_base == TIMER_1)
		{
			//timer 1
		}
		else if (pwm_base == TIMER_2)
 2b8:	25 e4       	ldi	r18, 0x45	; 69
 2ba:	d2 12       	cpse	r13, r18
 2bc:	01 c0       	rjmp	.+2      	; 0x2c0 <pwm_init+0x22e>
		{
			OCR2=OcrRegVal;
 2be:	03 bd       	out	0x23, r16	; 35
	{
		ret_val=INVALID_PWM_PARAMS;
	}
#endif
	return ret_val;
}
 2c0:	df 91       	pop	r29
 2c2:	cf 91       	pop	r28
 2c4:	1f 91       	pop	r17
 2c6:	0f 91       	pop	r16
 2c8:	ff 90       	pop	r15
 2ca:	ef 90       	pop	r14
 2cc:	df 90       	pop	r13
 2ce:	cf 90       	pop	r12
 2d0:	bf 90       	pop	r11
 2d2:	af 90       	pop	r10
 2d4:	9f 90       	pop	r9
 2d6:	7f 90       	pop	r7
 2d8:	6f 90       	pop	r6
 2da:	5f 90       	pop	r5
 2dc:	4f 90       	pop	r4
 2de:	08 95       	ret

000002e0 <pwm_edit>:


pwm_error_t pwm_edit(st_pwm_object*pwm_obj,pwm_output_mode_t pwm_mode,pwm_operating_mode_t pwm_op_mode,msa_u32 pwm_freq,pwm_duty_cycle_t pwm_duty_cycle)
{
 2e0:	cf 92       	push	r12
 2e2:	ef 92       	push	r14
 2e4:	ff 92       	push	r15
 2e6:	0f 93       	push	r16
 2e8:	1f 93       	push	r17
	)
	{
		if (pwm_obj->pwm_module_config_state_obj == CONFIGED)
		{
#endif
			ret_val=pwm_init(pwm_obj,pwm_obj->pwm_base_obj,pwm_mode,pwm_op_mode,pwm_freq,pwm_duty_cycle);
 2ea:	ce 2c       	mov	r12, r14
 2ec:	78 01       	movw	r14, r16
 2ee:	89 01       	movw	r16, r18
 2f0:	24 2f       	mov	r18, r20
 2f2:	46 2f       	mov	r20, r22
 2f4:	fc 01       	movw	r30, r24
 2f6:	60 81       	ld	r22, Z
 2f8:	0e 94 49 00 	call	0x92	; 0x92 <pwm_init>
	{
		ret_val=INVALID_PWM_PARAMS;
	}
#endif
	return ret_val;
}
 2fc:	1f 91       	pop	r17
 2fe:	0f 91       	pop	r16
 300:	ff 90       	pop	r15
 302:	ef 90       	pop	r14
 304:	cf 90       	pop	r12
 306:	08 95       	ret

00000308 <hal_spiInit>:

static void (*spi_interrupt_handler)(void);

spi_error_t hal_spiInit(str_spi_objectInfo_t *strg_obj,spi_driver_base_t driver_base,spi_sck_freq_select_t	freq_select,
						spi_operating_mode_t mode,spi_notifcs_mode_t notfics_mode,spi_transfer_modes_t transfer_mode,spi_data_order_t data_order)
{
 308:	cf 92       	push	r12
 30a:	df 92       	push	r13
 30c:	ef 92       	push	r14
 30e:	0f 93       	push	r16
 310:	fc 01       	movw	r30, r24
	     (mode == SLAVE_EN || mode == MASTER_EN) && (notfics_mode == SPI_POLLING || notfics_mode == SPI_INTERRUPTING) &&
		 ((transfer_mode >= MODE_1) && (transfer_mode <= MODE_4) ) && ((data_order == LSB_FIRST)||(data_order == MSB_FIRST)) 
	  )
	{
#endif
		cli();//to finish the driver initializations first
 312:	f8 94       	cli
		//storing data 
		strg_obj->driver_base_obj	=driver_base;
 314:	60 83       	st	Z, r22
		strg_obj->driver_state_obj	=DRIVER_INITIATED;
 316:	81 e0       	ldi	r24, 0x01	; 1
 318:	86 83       	std	Z+6, r24	; 0x06
		strg_obj->freq_select_obj	=freq_select;
 31a:	41 83       	std	Z+1, r20	; 0x01
		strg_obj->mode_obj			=mode;
 31c:	22 83       	std	Z+2, r18	; 0x02
		strg_obj->transfer_mode_obj	=transfer_mode;
 31e:	e4 82       	std	Z+4, r14	; 0x04
		strg_obj->notfics_mode_obj	=notfics_mode;
 320:	03 83       	std	Z+3, r16	; 0x03
		strg_obj->data_order_obj	=data_order;
 322:	c5 82       	std	Z+5, r12	; 0x05
		
		//actual initialization
		//&
		//configuring the driver pins
		if (mode == MASTER_EN)
 324:	21 30       	cpi	r18, 0x01	; 1
 326:	19 f5       	brne	.+70     	; 0x36e <hal_spiInit+0x66>
		{
			//again,this is according to the atmega32 mcu
			SET_BIT(DDRB,SPI_PIN_SS);
 328:	bc 9a       	sbi	0x17, 4	; 23
			SET_BIT(DDRB,SPI_PIN_SCK);
 32a:	bf 9a       	sbi	0x17, 7	; 23
			SET_BIT(DDRB,SPI_PIN_MOSI);
 32c:	bd 9a       	sbi	0x17, 5	; 23
			CLEAR_BIT(DDRB,SPI_PIN_MISO);
 32e:	be 98       	cbi	0x17, 6	; 23
			//actual initialization
			*((volatile msa_u8 *)driver_base+CTRL_REG_OFFSET)	|= (freq_select & 0x03)|(transfer_mode<<CPHA)|(mode << MSTR);
 330:	e6 2f       	mov	r30, r22
 332:	f0 e0       	ldi	r31, 0x00	; 0
 334:	90 81       	ld	r25, Z
 336:	8e 2d       	mov	r24, r14
 338:	88 0f       	add	r24, r24
 33a:	88 0f       	add	r24, r24
 33c:	80 61       	ori	r24, 0x10	; 16
 33e:	24 2f       	mov	r18, r20
 340:	23 70       	andi	r18, 0x03	; 3
 342:	82 2b       	or	r24, r18
 344:	89 2b       	or	r24, r25
 346:	80 83       	st	Z, r24
			*((volatile msa_u8 *)driver_base+CTRL_REG_OFFSET)	|= (ENABLE<<SPE)|(notfics_mode<<SPIE)|(data_order<<DORD);
 348:	20 81       	ld	r18, Z
 34a:	30 e2       	ldi	r19, 0x20	; 32
 34c:	c3 9e       	mul	r12, r19
 34e:	c0 01       	movw	r24, r0
 350:	11 24       	eor	r1, r1
 352:	80 64       	ori	r24, 0x40	; 64
 354:	90 e8       	ldi	r25, 0x80	; 128
 356:	09 9f       	mul	r16, r25
 358:	60 01       	movw	r12, r0
 35a:	11 24       	eor	r1, r1
 35c:	8c 29       	or	r24, r12
 35e:	82 2b       	or	r24, r18
 360:	80 83       	st	Z, r24
			*((volatile msa_u8 *)driver_base+STATUS_REG_OFFSET) |= ( (freq_select&0xfcUL)>>2 );	//test the res is -4?? or worked well...>>edited and worked
 362:	81 81       	ldd	r24, Z+1	; 0x01
 364:	46 95       	lsr	r20
 366:	46 95       	lsr	r20
 368:	48 2b       	or	r20, r24
 36a:	41 83       	std	Z+1, r20	; 0x01
 36c:	0f c0       	rjmp	.+30     	; 0x38c <hal_spiInit+0x84>
			
		} 
		else //slave_en
		{
			//again,this is according to the atmega32 mcu
			CLEAR_BIT(DDRB,SPI_PIN_SS);
 36e:	bc 98       	cbi	0x17, 4	; 23
			CLEAR_BIT(DDRB,SPI_PIN_SCK);
 370:	bf 98       	cbi	0x17, 7	; 23
			CLEAR_BIT(DDRB,SPI_PIN_MOSI);
 372:	bd 98       	cbi	0x17, 5	; 23
			SET_BIT  (DDRB,SPI_PIN_MISO);
 374:	be 9a       	sbi	0x17, 6	; 23
			//actual initialization
			*((volatile msa_u8 *)driver_base+CTRL_REG_OFFSET)	|= (ENABLE<<SPE)|(notfics_mode<<SPIE);
 376:	e6 2f       	mov	r30, r22
 378:	f0 e0       	ldi	r31, 0x00	; 0
 37a:	90 81       	ld	r25, Z
 37c:	80 e8       	ldi	r24, 0x80	; 128
 37e:	08 9f       	mul	r16, r24
 380:	90 01       	movw	r18, r0
 382:	11 24       	eor	r1, r1
 384:	82 2f       	mov	r24, r18
 386:	80 64       	ori	r24, 0x40	; 64
 388:	89 2b       	or	r24, r25
 38a:	80 83       	st	Z, r24
			
		}
		if (notfics_mode == SPI_INTERRUPTING) //re-edit not to override the interrupt status,or the condition with the previous interrupt status
 38c:	01 30       	cpi	r16, 0x01	; 1
 38e:	09 f4       	brne	.+2      	; 0x392 <hal_spiInit+0x8a>
		{
			sei();
 390:	78 94       	sei
	{
		ret_val=INVALID_SPI_PARAMS;
	}
#endif
	return ret_val;
}
 392:	80 e0       	ldi	r24, 0x00	; 0
 394:	0f 91       	pop	r16
 396:	ef 90       	pop	r14
 398:	df 90       	pop	r13
 39a:	cf 90       	pop	r12
 39c:	08 95       	ret

0000039e <hal_spiExchangeDATA>:
	#else
		//round up by default
		__ticks_dc = (uint32_t)(ceil(fabs(__tmp)));
	#endif

	__builtin_avr_delay_cycles(__ticks_dc);
 39e:	25 e0       	ldi	r18, 0x05	; 5
 3a0:	2a 95       	dec	r18
 3a2:	f1 f7       	brne	.-4      	; 0x3a0 <hal_spiExchangeDATA+0x2>
 3a4:	00 00       	nop
		if (strg_obj->driver_state_obj == DRIVER_INITIATED)
		{
#endif
			_delay_us(2);////for safety but edit if made an error with the CAN Driver
			//put the outgoing byte to be sent
			(*(volatile msa_u8*)(strg_obj->driver_base_obj+DATA_REG_OFFSET))=*ByteOUT;
 3a6:	dc 01       	movw	r26, r24
 3a8:	ec 91       	ld	r30, X
 3aa:	f0 e0       	ldi	r31, 0x00	; 0
 3ac:	db 01       	movw	r26, r22
 3ae:	2c 91       	ld	r18, X
 3b0:	22 83       	std	Z+2, r18	; 0x02
			//wait the exchange completion
			while(!((*(volatile msa_u8*)(strg_obj->driver_base_obj+STATUS_REG_OFFSET)) & (1<<SPIF)))//fixed an error,was testing the 7th bit in the data reg wich is wrong
 3b2:	fc 01       	movw	r30, r24
 3b4:	a0 81       	ld	r26, Z
 3b6:	b0 e0       	ldi	r27, 0x00	; 0
 3b8:	fd 01       	movw	r30, r26
 3ba:	31 96       	adiw	r30, 0x01	; 1
 3bc:	80 81       	ld	r24, Z
 3be:	88 23       	and	r24, r24
 3c0:	ec f7       	brge	.-6      	; 0x3bc <hal_spiExchangeDATA+0x1e>
			;
			//take the incoming byte that was received
			*ByteIN=(*(volatile msa_u8*)(strg_obj->driver_base_obj+DATA_REG_OFFSET));
 3c2:	12 96       	adiw	r26, 0x02	; 2
 3c4:	8c 91       	ld	r24, X
 3c6:	da 01       	movw	r26, r20
 3c8:	8c 93       	st	X, r24
		ret_val=INVALID_SPI_PARAMS;
	}
#endif
	return ret_val;
	
}
 3ca:	80 e0       	ldi	r24, 0x00	; 0
 3cc:	08 95       	ret

000003ce <usart_init>:
	}
#endif
	return ret_val;
	
	
}
 3ce:	cf 92       	push	r12
 3d0:	ef 92       	push	r14
 3d2:	0f 93       	push	r16
 3d4:	fc 01       	movw	r30, r24
 3d6:	e1 10       	cpse	r14, r1
 3d8:	0c c0       	rjmp	.+24     	; 0x3f2 <usart_init+0x24>
 3da:	f8 94       	cli
 3dc:	61 30       	cpi	r22, 0x01	; 1
 3de:	11 f4       	brne	.+4      	; 0x3e4 <usart_init+0x16>
 3e0:	55 9a       	sbi	0x0a, 5	; 10
 3e2:	07 c0       	rjmp	.+14     	; 0x3f2 <usart_init+0x24>
 3e4:	62 30       	cpi	r22, 0x02	; 2
 3e6:	11 f4       	brne	.+4      	; 0x3ec <usart_init+0x1e>
 3e8:	57 9a       	sbi	0x0a, 7	; 10
 3ea:	03 c0       	rjmp	.+6      	; 0x3f2 <usart_init+0x24>
 3ec:	8a b1       	in	r24, 0x0a	; 10
 3ee:	80 6a       	ori	r24, 0xA0	; 160
 3f0:	8a b9       	out	0x0a, r24	; 10
 3f2:	03 83       	std	Z+3, r16	; 0x03
 3f4:	81 e0       	ldi	r24, 0x01	; 1
 3f6:	85 83       	std	Z+5, r24	; 0x05
 3f8:	e4 82       	std	Z+4, r14	; 0x04
 3fa:	61 83       	std	Z+1, r22	; 0x01
 3fc:	22 83       	std	Z+2, r18	; 0x02
 3fe:	40 83       	st	Z, r20
 400:	9a b1       	in	r25, 0x0a	; 10
 402:	80 2f       	mov	r24, r16
 404:	84 70       	andi	r24, 0x04	; 4
 406:	88 0f       	add	r24, r24
 408:	88 0f       	add	r24, r24
 40a:	89 2b       	or	r24, r25
 40c:	66 0f       	add	r22, r22
 40e:	66 0f       	add	r22, r22
 410:	66 0f       	add	r22, r22
 412:	68 2b       	or	r22, r24
 414:	6a b9       	out	0x0a, r22	; 10
 416:	44 0f       	add	r20, r20
 418:	44 0f       	add	r20, r20
 41a:	44 0f       	add	r20, r20
 41c:	8c 2d       	mov	r24, r12
 41e:	80 68       	ori	r24, 0x80	; 128
 420:	c4 2e       	mov	r12, r20
 422:	c8 2a       	or	r12, r24
 424:	80 e1       	ldi	r24, 0x10	; 16
 426:	28 9f       	mul	r18, r24
 428:	90 01       	movw	r18, r0
 42a:	11 24       	eor	r1, r1
 42c:	2c 29       	or	r18, r12
 42e:	03 70       	andi	r16, 0x03	; 3
 430:	00 0f       	add	r16, r16
 432:	20 2b       	or	r18, r16
 434:	20 bd       	out	0x20, r18	; 32
 436:	80 91 60 00 	lds	r24, 0x0060	; 0x800060 <UBRR_VAL>
 43a:	89 b9       	out	0x09, r24	; 9
 43c:	80 91 61 00 	lds	r24, 0x0061	; 0x800061 <UBRR_VAL+0x1>
 440:	8f 77       	andi	r24, 0x7F	; 127
 442:	80 bd       	out	0x20, r24	; 32
 444:	e1 10       	cpse	r14, r1
 446:	01 c0       	rjmp	.+2      	; 0x44a <__LOCK_REGION_LENGTH__+0x4a>
 448:	78 94       	sei
 44a:	85 e1       	ldi	r24, 0x15	; 21
 44c:	0f 91       	pop	r16
 44e:	ef 90       	pop	r14
 450:	cf 90       	pop	r12
 452:	08 95       	ret

00000454 <usart_set_isr_RXC_callback>:
 454:	70 93 69 00 	sts	0x0069, r23	; 0x800069 <__data_end+0x1>
 458:	60 93 68 00 	sts	0x0068, r22	; 0x800068 <__data_end>
 45c:	85 e1       	ldi	r24, 0x15	; 21
 45e:	08 95       	ret

00000460 <__vector_13>:
//TEST LATER THE FUNCTION
ISR(USART_RXC_vect)
{
 460:	1f 92       	push	r1
 462:	0f 92       	push	r0
 464:	0f b6       	in	r0, 0x3f	; 63
 466:	0f 92       	push	r0
 468:	11 24       	eor	r1, r1
 46a:	2f 93       	push	r18
 46c:	3f 93       	push	r19
 46e:	4f 93       	push	r20
 470:	5f 93       	push	r21
 472:	6f 93       	push	r22
 474:	7f 93       	push	r23
 476:	8f 93       	push	r24
 478:	9f 93       	push	r25
 47a:	af 93       	push	r26
 47c:	bf 93       	push	r27
 47e:	ef 93       	push	r30
 480:	ff 93       	push	r31
	if (vptr_RXC_cb)
 482:	e0 91 68 00 	lds	r30, 0x0068	; 0x800068 <__data_end>
 486:	f0 91 69 00 	lds	r31, 0x0069	; 0x800069 <__data_end+0x1>
 48a:	30 97       	sbiw	r30, 0x00	; 0
 48c:	09 f0       	breq	.+2      	; 0x490 <__vector_13+0x30>
	{
		vptr_RXC_cb();
 48e:	09 95       	icall
	}
		
}
 490:	ff 91       	pop	r31
 492:	ef 91       	pop	r30
 494:	bf 91       	pop	r27
 496:	af 91       	pop	r26
 498:	9f 91       	pop	r25
 49a:	8f 91       	pop	r24
 49c:	7f 91       	pop	r23
 49e:	6f 91       	pop	r22
 4a0:	5f 91       	pop	r21
 4a2:	4f 91       	pop	r20
 4a4:	3f 91       	pop	r19
 4a6:	2f 91       	pop	r18
 4a8:	0f 90       	pop	r0
 4aa:	0f be       	out	0x3f, r0	; 63
 4ac:	0f 90       	pop	r0
 4ae:	1f 90       	pop	r1
 4b0:	18 95       	reti

000004b2 <usart_listen>:
}

//these will occur only if there is an emergency call from the tiva controller
void usart_listen(void)
{
	uart_data_got=UDR;
 4b2:	8c b1       	in	r24, 0x0c	; 12
 4b4:	80 93 6c 00 	sts	0x006C, r24	; 0x80006c <uart_data_got>
 4b8:	08 95       	ret

000004ba <system_init>:
	return 0;
}


void system_init(void)
{
 4ba:	cf 92       	push	r12
 4bc:	ef 92       	push	r14
 4be:	ff 92       	push	r15
 4c0:	0f 93       	push	r16
 4c2:	1f 93       	push	r17
	//LED PINS
	SET_BIT(DDRA,LED_PIN);
 4c4:	d0 9a       	sbi	0x1a, 0	; 26
	SET_BIT(DDRA,BUZ_PIN);
 4c6:	d1 9a       	sbi	0x1a, 1	; 26
	//spi init...try polling i.e wait 10 m s or the time the longest scanning task will take plus some 
	//time then ask for the status if reading is done or not
				//try to make the delay decreases by time :D 
	hal_spiInit(&spi_obj,SPI_1_base,FREQ_BY_4,MASTER_EN,SPI_POLLING,MODE_1,MSB_FIRST);
 4c8:	c1 2c       	mov	r12, r1
 4ca:	e1 2c       	mov	r14, r1
 4cc:	00 e0       	ldi	r16, 0x00	; 0
 4ce:	21 e0       	ldi	r18, 0x01	; 1
 4d0:	40 e0       	ldi	r20, 0x00	; 0
 4d2:	6d e2       	ldi	r22, 0x2D	; 45
 4d4:	88 e9       	ldi	r24, 0x98	; 152
 4d6:	90 e0       	ldi	r25, 0x00	; 0
 4d8:	0e 94 84 01 	call	0x308	; 0x308 <hal_spiInit>
	//uart init
	usart_init(&uart_obj,A_RECEIVER,ONE_STP_BIT,NO_PARITY,EIGHT,INTERRUPT_DRIVEN,FALLING_EDGE);
 4dc:	cc 24       	eor	r12, r12
 4de:	c3 94       	inc	r12
 4e0:	03 e0       	ldi	r16, 0x03	; 3
 4e2:	20 e0       	ldi	r18, 0x00	; 0
 4e4:	40 e0       	ldi	r20, 0x00	; 0
 4e6:	62 e0       	ldi	r22, 0x02	; 2
 4e8:	8f e9       	ldi	r24, 0x9F	; 159
 4ea:	90 e0       	ldi	r25, 0x00	; 0
 4ec:	0e 94 e7 01 	call	0x3ce	; 0x3ce <usart_init>
	usart_set_isr_RXC_callback(&uart_obj,usart_listen);
 4f0:	69 e5       	ldi	r22, 0x59	; 89
 4f2:	72 e0       	ldi	r23, 0x02	; 2
 4f4:	8f e9       	ldi	r24, 0x9F	; 159
 4f6:	90 e0       	ldi	r25, 0x00	; 0
 4f8:	0e 94 2a 02 	call	0x454	; 0x454 <usart_set_isr_RXC_callback>
	//pwm init
	SET_BIT(DDRB,PWM_PIN);
 4fc:	bb 9a       	sbi	0x17, 3	; 23
	SET_BIT(PORTB,PWM_PIN);
 4fe:	c3 9a       	sbi	0x18, 3	; 24
	pwm_init(&pwm_obj,TIMER_0,INVERTED,FAST_PWM,SERVO_CTRL_FREQ,1);
 500:	12 e3       	ldi	r17, 0x32	; 50
 502:	e1 2e       	mov	r14, r17
 504:	f1 2c       	mov	r15, r1
 506:	00 e0       	ldi	r16, 0x00	; 0
 508:	10 e0       	ldi	r17, 0x00	; 0
 50a:	23 e0       	ldi	r18, 0x03	; 3
 50c:	43 e0       	ldi	r20, 0x03	; 3
 50e:	63 e5       	ldi	r22, 0x53	; 83
 510:	8e e8       	ldi	r24, 0x8E	; 142
 512:	90 e0       	ldi	r25, 0x00	; 0
 514:	0e 94 49 00 	call	0x92	; 0x92 <pwm_init>
}
 518:	1f 91       	pop	r17
 51a:	0f 91       	pop	r16
 51c:	ff 90       	pop	r15
 51e:	ef 90       	pop	r14
 520:	cf 90       	pop	r12
 522:	08 95       	ret

00000524 <uart_check>:

void uart_check(void)	//will be a task with a semaphore depends on the isr
{
	if(uart_data_got == STOP_SERVO)
 524:	80 91 6c 00 	lds	r24, 0x006C	; 0x80006c <uart_data_got>
 528:	8e 34       	cpi	r24, 0x4E	; 78
 52a:	e1 f4       	brne	.+56     	; 0x564 <uart_check+0x40>
	{
		while (uart_data_got != RESUME_SERVO)	//will be changed by the isr
 52c:	80 91 6c 00 	lds	r24, 0x006C	; 0x80006c <uart_data_got>
 530:	8f 34       	cpi	r24, 0x4F	; 79
 532:	c1 f0       	breq	.+48     	; 0x564 <uart_check+0x40>
		{
			//uart_data_got=UDR;
			//red led on
			RED_LED_ON();
 534:	d8 9a       	sbi	0x1b, 0	; 27
	#else
		//round up by default
		__ticks_dc = (uint32_t)(ceil(fabs(__tmp)));
	#endif

	__builtin_avr_delay_cycles(__ticks_dc);
 536:	2f e7       	ldi	r18, 0x7F	; 127
 538:	8a e1       	ldi	r24, 0x1A	; 26
 53a:	96 e0       	ldi	r25, 0x06	; 6
 53c:	21 50       	subi	r18, 0x01	; 1
 53e:	80 40       	sbci	r24, 0x00	; 0
 540:	90 40       	sbci	r25, 0x00	; 0
 542:	e1 f7       	brne	.-8      	; 0x53c <uart_check+0x18>
 544:	00 c0       	rjmp	.+0      	; 0x546 <uart_check+0x22>
 546:	00 00       	nop
			//delay 250
			_delay_ms(250);
			//red led off
			RED_LED_OF();
 548:	d8 98       	cbi	0x1b, 0	; 27
 54a:	2f e7       	ldi	r18, 0x7F	; 127
 54c:	8a e1       	ldi	r24, 0x1A	; 26
 54e:	96 e0       	ldi	r25, 0x06	; 6
 550:	21 50       	subi	r18, 0x01	; 1
 552:	80 40       	sbci	r24, 0x00	; 0
 554:	90 40       	sbci	r25, 0x00	; 0
 556:	e1 f7       	brne	.-8      	; 0x550 <uart_check+0x2c>
 558:	00 c0       	rjmp	.+0      	; 0x55a <uart_check+0x36>
 55a:	00 00       	nop

void uart_check(void)	//will be a task with a semaphore depends on the isr
{
	if(uart_data_got == STOP_SERVO)
	{
		while (uart_data_got != RESUME_SERVO)	//will be changed by the isr
 55c:	80 91 6c 00 	lds	r24, 0x006C	; 0x80006c <uart_data_got>
 560:	8f 34       	cpi	r24, 0x4F	; 79
 562:	41 f7       	brne	.-48     	; 0x534 <uart_check+0x10>
			_delay_ms(250);
		}
	
	}
	//red led off
	RED_LED_OF();
 564:	d8 98       	cbi	0x1b, 0	; 27
 566:	08 95       	ret

00000568 <main>:
volatile msa_u8 spi_temp_inn=0;
volatile msa_u8 uart_temp=0;

int main(void)
{
	system_init();
 568:	0e 94 5d 02 	call	0x4ba	; 0x4ba <system_init>
			//pwm
			pwm_edit(&pwm_obj,INVERTED,FAST_PWM,SERVO_CTRL_FREQ,servo_direction[iteration_counter]);
			//check if uart_stop
			uart_check();
			//spi_scan ya atmega
			spi_temp_out = SCAN_YA_MEGA;
 56c:	0f 2e       	mov	r0, r31
 56e:	f0 e5       	ldi	r31, 0x50	; 80
 570:	ff 2e       	mov	r15, r31
 572:	f0 2d       	mov	r31, r0
volatile msa_u8 spi_temp_out=0;
volatile msa_u8 spi_temp_inn=0;
volatile msa_u8 uart_temp=0;

int main(void)
{
 574:	c0 e0       	ldi	r28, 0x00	; 0
 576:	d0 e0       	ldi	r29, 0x00	; 0
	{
		// 0:1:2 Servo direction
		for (msa_u8 iteration_counter=0; iteration_counter < 3; iteration_counter++)
		{
			//check if uart_stop
			uart_check();
 578:	0e 94 92 02 	call	0x524	; 0x524 <uart_check>
			//pwm
			pwm_edit(&pwm_obj,INVERTED,FAST_PWM,SERVO_CTRL_FREQ,servo_direction[iteration_counter]);
 57c:	fe 01       	movw	r30, r28
 57e:	ec 59       	subi	r30, 0x9C	; 156
 580:	ff 4f       	sbci	r31, 0xFF	; 255
 582:	e0 80       	ld	r14, Z
 584:	02 e3       	ldi	r16, 0x32	; 50
 586:	10 e0       	ldi	r17, 0x00	; 0
 588:	20 e0       	ldi	r18, 0x00	; 0
 58a:	30 e0       	ldi	r19, 0x00	; 0
 58c:	43 e0       	ldi	r20, 0x03	; 3
 58e:	63 e0       	ldi	r22, 0x03	; 3
 590:	8e e8       	ldi	r24, 0x8E	; 142
 592:	90 e0       	ldi	r25, 0x00	; 0
 594:	0e 94 70 01 	call	0x2e0	; 0x2e0 <pwm_edit>
			//check if uart_stop
			uart_check();
 598:	0e 94 92 02 	call	0x524	; 0x524 <uart_check>
			//spi_scan ya atmega
			spi_temp_out = SCAN_YA_MEGA;
 59c:	f0 92 6b 00 	sts	0x006B, r15	; 0x80006b <spi_temp_out>
			hal_spiExchangeDATA(&spi_obj,&spi_temp_out,&spi_temp_inn);
 5a0:	4a e6       	ldi	r20, 0x6A	; 106
 5a2:	50 e0       	ldi	r21, 0x00	; 0
 5a4:	6b e6       	ldi	r22, 0x6B	; 107
 5a6:	70 e0       	ldi	r23, 0x00	; 0
 5a8:	88 e9       	ldi	r24, 0x98	; 152
 5aa:	90 e0       	ldi	r25, 0x00	; 0
 5ac:	0e 94 cf 01 	call	0x39e	; 0x39e <hal_spiExchangeDATA>
			//check if uart_stop
			uart_check();
 5b0:	0e 94 92 02 	call	0x524	; 0x524 <uart_check>
 5b4:	2f ef       	ldi	r18, 0xFF	; 255
 5b6:	84 e3       	ldi	r24, 0x34	; 52
 5b8:	9c e0       	ldi	r25, 0x0C	; 12
 5ba:	21 50       	subi	r18, 0x01	; 1
 5bc:	80 40       	sbci	r24, 0x00	; 0
 5be:	90 40       	sbci	r25, 0x00	; 0
 5c0:	e1 f7       	brne	.-8      	; 0x5ba <main+0x52>
 5c2:	00 c0       	rjmp	.+0      	; 0x5c4 <main+0x5c>
 5c4:	00 00       	nop
 5c6:	21 96       	adiw	r28, 0x01	; 1
	system_init();
	//sei();
	while (1)
	{
		// 0:1:2 Servo direction
		for (msa_u8 iteration_counter=0; iteration_counter < 3; iteration_counter++)
 5c8:	c3 30       	cpi	r28, 0x03	; 3
 5ca:	d1 05       	cpc	r29, r1
 5cc:	a9 f6       	brne	.-86     	; 0x578 <main+0x10>
		}
		//3:2:1 servo direction
		for (msa_u8 iteration_counter=3; iteration_counter > 0; iteration_counter--)
		{
			//check if uart_stop
			uart_check();
 5ce:	0e 94 92 02 	call	0x524	; 0x524 <uart_check>
			//pwm
			pwm_edit(&pwm_obj,INVERTED,FAST_PWM,SERVO_CTRL_FREQ,servo_direction[iteration_counter]);
 5d2:	fe 01       	movw	r30, r28
 5d4:	ec 59       	subi	r30, 0x9C	; 156
 5d6:	ff 4f       	sbci	r31, 0xFF	; 255
 5d8:	e0 80       	ld	r14, Z
 5da:	02 e3       	ldi	r16, 0x32	; 50
 5dc:	10 e0       	ldi	r17, 0x00	; 0
 5de:	20 e0       	ldi	r18, 0x00	; 0
 5e0:	30 e0       	ldi	r19, 0x00	; 0
 5e2:	43 e0       	ldi	r20, 0x03	; 3
 5e4:	63 e0       	ldi	r22, 0x03	; 3
 5e6:	8e e8       	ldi	r24, 0x8E	; 142
 5e8:	90 e0       	ldi	r25, 0x00	; 0
 5ea:	0e 94 70 01 	call	0x2e0	; 0x2e0 <pwm_edit>
			//check if uart_stop
			uart_check();
 5ee:	0e 94 92 02 	call	0x524	; 0x524 <uart_check>
			//spi_scan ya atmega
			spi_temp_out = SCAN_YA_MEGA;
 5f2:	f0 92 6b 00 	sts	0x006B, r15	; 0x80006b <spi_temp_out>
			hal_spiExchangeDATA(&spi_obj,&spi_temp_out,&spi_temp_inn);
 5f6:	4a e6       	ldi	r20, 0x6A	; 106
 5f8:	50 e0       	ldi	r21, 0x00	; 0
 5fa:	6b e6       	ldi	r22, 0x6B	; 107
 5fc:	70 e0       	ldi	r23, 0x00	; 0
 5fe:	88 e9       	ldi	r24, 0x98	; 152
 600:	90 e0       	ldi	r25, 0x00	; 0
 602:	0e 94 cf 01 	call	0x39e	; 0x39e <hal_spiExchangeDATA>
			//check if uart_stop
			uart_check();
 606:	0e 94 92 02 	call	0x524	; 0x524 <uart_check>
 60a:	2f ef       	ldi	r18, 0xFF	; 255
 60c:	84 e3       	ldi	r24, 0x34	; 52
 60e:	9c e0       	ldi	r25, 0x0C	; 12
 610:	21 50       	subi	r18, 0x01	; 1
 612:	80 40       	sbci	r24, 0x00	; 0
 614:	90 40       	sbci	r25, 0x00	; 0
 616:	e1 f7       	brne	.-8      	; 0x610 <main+0xa8>
 618:	00 c0       	rjmp	.+0      	; 0x61a <main+0xb2>
 61a:	00 00       	nop
 61c:	21 97       	sbiw	r28, 0x01	; 1
			//sys_test(iteration_counter,servo_direction[iteration_counter]); 
			//wait el confirmation counter to be two 
			_delay_ms(SERVO_DELAY_VAL);//use the rtos delay instead or wait the confirm cntr to be 2
		}
		//3:2:1 servo direction
		for (msa_u8 iteration_counter=3; iteration_counter > 0; iteration_counter--)
 61e:	b9 f6       	brne	.-82     	; 0x5ce <main+0x66>
 620:	a9 cf       	rjmp	.-174    	; 0x574 <main+0xc>

00000622 <vListInsertEnd>:
	/* Remember which list the item is in.  This allows fast removal of the
	item later. */
	pxNewListItem->pvContainer = ( void * ) pxList;

	( pxList->uxNumberOfItems )++;
}
 622:	cf 93       	push	r28
 624:	df 93       	push	r29
 626:	9c 01       	movw	r18, r24
 628:	fb 01       	movw	r30, r22
 62a:	dc 01       	movw	r26, r24
 62c:	11 96       	adiw	r26, 0x01	; 1
 62e:	cd 91       	ld	r28, X+
 630:	dc 91       	ld	r29, X
 632:	12 97       	sbiw	r26, 0x02	; 2
 634:	d3 83       	std	Z+3, r29	; 0x03
 636:	c2 83       	std	Z+2, r28	; 0x02
 638:	8c 81       	ldd	r24, Y+4	; 0x04
 63a:	9d 81       	ldd	r25, Y+5	; 0x05
 63c:	95 83       	std	Z+5, r25	; 0x05
 63e:	84 83       	std	Z+4, r24	; 0x04
 640:	8c 81       	ldd	r24, Y+4	; 0x04
 642:	9d 81       	ldd	r25, Y+5	; 0x05
 644:	dc 01       	movw	r26, r24
 646:	13 96       	adiw	r26, 0x03	; 3
 648:	7c 93       	st	X, r23
 64a:	6e 93       	st	-X, r22
 64c:	12 97       	sbiw	r26, 0x02	; 2
 64e:	7d 83       	std	Y+5, r23	; 0x05
 650:	6c 83       	std	Y+4, r22	; 0x04
 652:	31 87       	std	Z+9, r19	; 0x09
 654:	20 87       	std	Z+8, r18	; 0x08
 656:	f9 01       	movw	r30, r18
 658:	80 81       	ld	r24, Z
 65a:	8f 5f       	subi	r24, 0xFF	; 255
 65c:	80 83       	st	Z, r24
 65e:	df 91       	pop	r29
 660:	cf 91       	pop	r28
 662:	08 95       	ret

00000664 <uxListRemove>:
/*-----------------------------------------------------------*/

UBaseType_t uxListRemove( ListItem_t * const pxItemToRemove )
{
 664:	cf 93       	push	r28
 666:	df 93       	push	r29
 668:	fc 01       	movw	r30, r24
/* The list item knows which list it is in.  Obtain the list from the list
item. */
List_t * const pxList = ( List_t * ) pxItemToRemove->pvContainer;
 66a:	a0 85       	ldd	r26, Z+8	; 0x08
 66c:	b1 85       	ldd	r27, Z+9	; 0x09

	pxItemToRemove->pxNext->pxPrevious = pxItemToRemove->pxPrevious;
 66e:	c2 81       	ldd	r28, Z+2	; 0x02
 670:	d3 81       	ldd	r29, Z+3	; 0x03
 672:	84 81       	ldd	r24, Z+4	; 0x04
 674:	95 81       	ldd	r25, Z+5	; 0x05
 676:	9d 83       	std	Y+5, r25	; 0x05
 678:	8c 83       	std	Y+4, r24	; 0x04
	pxItemToRemove->pxPrevious->pxNext = pxItemToRemove->pxNext;
 67a:	c4 81       	ldd	r28, Z+4	; 0x04
 67c:	d5 81       	ldd	r29, Z+5	; 0x05
 67e:	82 81       	ldd	r24, Z+2	; 0x02
 680:	93 81       	ldd	r25, Z+3	; 0x03
 682:	9b 83       	std	Y+3, r25	; 0x03
 684:	8a 83       	std	Y+2, r24	; 0x02

	/* Only used during decision coverage testing. */
	mtCOVERAGE_TEST_DELAY();

	/* Make sure the index is left pointing to a valid item. */
	if( pxList->pxIndex == pxItemToRemove )
 686:	11 96       	adiw	r26, 0x01	; 1
 688:	8d 91       	ld	r24, X+
 68a:	9c 91       	ld	r25, X
 68c:	12 97       	sbiw	r26, 0x02	; 2
 68e:	e8 17       	cp	r30, r24
 690:	f9 07       	cpc	r31, r25
 692:	31 f4       	brne	.+12     	; 0x6a0 <uxListRemove+0x3c>
	{
		pxList->pxIndex = pxItemToRemove->pxPrevious;
 694:	84 81       	ldd	r24, Z+4	; 0x04
 696:	95 81       	ldd	r25, Z+5	; 0x05
 698:	12 96       	adiw	r26, 0x02	; 2
 69a:	9c 93       	st	X, r25
 69c:	8e 93       	st	-X, r24
 69e:	11 97       	sbiw	r26, 0x01	; 1
	else
	{
		mtCOVERAGE_TEST_MARKER();
	}

	pxItemToRemove->pvContainer = NULL;
 6a0:	11 86       	std	Z+9, r1	; 0x09
 6a2:	10 86       	std	Z+8, r1	; 0x08
	( pxList->uxNumberOfItems )--;
 6a4:	8c 91       	ld	r24, X
 6a6:	81 50       	subi	r24, 0x01	; 1
 6a8:	8c 93       	st	X, r24

	return pxList->uxNumberOfItems;
}
 6aa:	df 91       	pop	r29
 6ac:	cf 91       	pop	r28
 6ae:	08 95       	ret

000006b0 <vPortYieldFromTick>:
 * call comes from the tick ISR.
 */
void vPortYieldFromTick( void ) __attribute__ ( ( naked ) );
void vPortYieldFromTick( void )
{
	portSAVE_CONTEXT();
 6b0:	0f 92       	push	r0
 6b2:	0f b6       	in	r0, 0x3f	; 63
 6b4:	f8 94       	cli
 6b6:	0f 92       	push	r0
 6b8:	1f 92       	push	r1
 6ba:	11 24       	eor	r1, r1
 6bc:	2f 92       	push	r2
 6be:	3f 92       	push	r3
 6c0:	4f 92       	push	r4
 6c2:	5f 92       	push	r5
 6c4:	6f 92       	push	r6
 6c6:	7f 92       	push	r7
 6c8:	8f 92       	push	r8
 6ca:	9f 92       	push	r9
 6cc:	af 92       	push	r10
 6ce:	bf 92       	push	r11
 6d0:	cf 92       	push	r12
 6d2:	df 92       	push	r13
 6d4:	ef 92       	push	r14
 6d6:	ff 92       	push	r15
 6d8:	0f 93       	push	r16
 6da:	1f 93       	push	r17
 6dc:	2f 93       	push	r18
 6de:	3f 93       	push	r19
 6e0:	4f 93       	push	r20
 6e2:	5f 93       	push	r21
 6e4:	6f 93       	push	r22
 6e6:	7f 93       	push	r23
 6e8:	8f 93       	push	r24
 6ea:	9f 93       	push	r25
 6ec:	af 93       	push	r26
 6ee:	bf 93       	push	r27
 6f0:	cf 93       	push	r28
 6f2:	df 93       	push	r29
 6f4:	ef 93       	push	r30
 6f6:	ff 93       	push	r31
 6f8:	a0 91 8c 00 	lds	r26, 0x008C	; 0x80008c <pxCurrentTCB>
 6fc:	b0 91 8d 00 	lds	r27, 0x008D	; 0x80008d <pxCurrentTCB+0x1>
 700:	0d b6       	in	r0, 0x3d	; 61
 702:	0d 92       	st	X+, r0
 704:	0e b6       	in	r0, 0x3e	; 62
 706:	0d 92       	st	X+, r0
	if( xTaskIncrementTick() != pdFALSE )
 708:	0e 94 d6 03 	call	0x7ac	; 0x7ac <xTaskIncrementTick>
 70c:	81 11       	cpse	r24, r1
	{
		vTaskSwitchContext();
 70e:	0e 94 91 04 	call	0x922	; 0x922 <vTaskSwitchContext>
	}
	portRESTORE_CONTEXT();
 712:	a0 91 8c 00 	lds	r26, 0x008C	; 0x80008c <pxCurrentTCB>
 716:	b0 91 8d 00 	lds	r27, 0x008D	; 0x80008d <pxCurrentTCB+0x1>
 71a:	cd 91       	ld	r28, X+
 71c:	cd bf       	out	0x3d, r28	; 61
 71e:	dd 91       	ld	r29, X+
 720:	de bf       	out	0x3e, r29	; 62
 722:	ff 91       	pop	r31
 724:	ef 91       	pop	r30
 726:	df 91       	pop	r29
 728:	cf 91       	pop	r28
 72a:	bf 91       	pop	r27
 72c:	af 91       	pop	r26
 72e:	9f 91       	pop	r25
 730:	8f 91       	pop	r24
 732:	7f 91       	pop	r23
 734:	6f 91       	pop	r22
 736:	5f 91       	pop	r21
 738:	4f 91       	pop	r20
 73a:	3f 91       	pop	r19
 73c:	2f 91       	pop	r18
 73e:	1f 91       	pop	r17
 740:	0f 91       	pop	r16
 742:	ff 90       	pop	r15
 744:	ef 90       	pop	r14
 746:	df 90       	pop	r13
 748:	cf 90       	pop	r12
 74a:	bf 90       	pop	r11
 74c:	af 90       	pop	r10
 74e:	9f 90       	pop	r9
 750:	8f 90       	pop	r8
 752:	7f 90       	pop	r7
 754:	6f 90       	pop	r6
 756:	5f 90       	pop	r5
 758:	4f 90       	pop	r4
 75a:	3f 90       	pop	r3
 75c:	2f 90       	pop	r2
 75e:	1f 90       	pop	r1
 760:	0f 90       	pop	r0
 762:	0f be       	out	0x3f, r0	; 63
 764:	0f 90       	pop	r0

	asm volatile ( "ret" );
 766:	08 95       	ret

00000768 <__vector_7>:
	 * count is incremented after the context is saved.
	 */
	void TIMER1_COMPA_vect( void ) __attribute__ ( ( signal, naked ) );
	void TIMER1_COMPA_vect( void )
	{
		vPortYieldFromTick();
 768:	0e 94 58 03 	call	0x6b0	; 0x6b0 <vPortYieldFromTick>
		asm volatile ( "reti" );
 76c:	18 95       	reti

0000076e <prvResetNextTaskUnblockTime>:
		}
		else
		{
			mtCOVERAGE_TEST_MARKER();
		}
	}
 76e:	e0 91 78 00 	lds	r30, 0x0078	; 0x800078 <pxDelayedTaskList>
 772:	f0 91 79 00 	lds	r31, 0x0079	; 0x800079 <pxDelayedTaskList+0x1>
 776:	80 81       	ld	r24, Z
 778:	81 11       	cpse	r24, r1
 77a:	07 c0       	rjmp	.+14     	; 0x78a <prvResetNextTaskUnblockTime+0x1c>
 77c:	8f ef       	ldi	r24, 0xFF	; 255
 77e:	9f ef       	ldi	r25, 0xFF	; 255
 780:	90 93 6f 00 	sts	0x006F, r25	; 0x80006f <xNextTaskUnblockTime+0x1>
 784:	80 93 6e 00 	sts	0x006E, r24	; 0x80006e <xNextTaskUnblockTime>
 788:	08 95       	ret
 78a:	e0 91 78 00 	lds	r30, 0x0078	; 0x800078 <pxDelayedTaskList>
 78e:	f0 91 79 00 	lds	r31, 0x0079	; 0x800079 <pxDelayedTaskList+0x1>
 792:	05 80       	ldd	r0, Z+5	; 0x05
 794:	f6 81       	ldd	r31, Z+6	; 0x06
 796:	e0 2d       	mov	r30, r0
 798:	06 80       	ldd	r0, Z+6	; 0x06
 79a:	f7 81       	ldd	r31, Z+7	; 0x07
 79c:	e0 2d       	mov	r30, r0
 79e:	82 81       	ldd	r24, Z+2	; 0x02
 7a0:	93 81       	ldd	r25, Z+3	; 0x03
 7a2:	90 93 6f 00 	sts	0x006F, r25	; 0x80006f <xNextTaskUnblockTime+0x1>
 7a6:	80 93 6e 00 	sts	0x006E, r24	; 0x80006e <xNextTaskUnblockTime>
 7aa:	08 95       	ret

000007ac <xTaskIncrementTick>:
 7ac:	cf 92       	push	r12
 7ae:	df 92       	push	r13
 7b0:	ef 92       	push	r14
 7b2:	ff 92       	push	r15
 7b4:	0f 93       	push	r16
 7b6:	1f 93       	push	r17
 7b8:	cf 93       	push	r28
 7ba:	df 93       	push	r29
 7bc:	80 91 6d 00 	lds	r24, 0x006D	; 0x80006d <uxSchedulerSuspended>
 7c0:	81 11       	cpse	r24, r1
 7c2:	99 c0       	rjmp	.+306    	; 0x8f6 <__stack+0x97>
 7c4:	e0 90 74 00 	lds	r14, 0x0074	; 0x800074 <xTickCount>
 7c8:	f0 90 75 00 	lds	r15, 0x0075	; 0x800075 <xTickCount+0x1>
 7cc:	8f ef       	ldi	r24, 0xFF	; 255
 7ce:	e8 1a       	sub	r14, r24
 7d0:	f8 0a       	sbc	r15, r24
 7d2:	f0 92 75 00 	sts	0x0075, r15	; 0x800075 <xTickCount+0x1>
 7d6:	e0 92 74 00 	sts	0x0074, r14	; 0x800074 <xTickCount>
 7da:	e1 14       	cp	r14, r1
 7dc:	f1 04       	cpc	r15, r1
 7de:	b9 f4       	brne	.+46     	; 0x80e <xTaskIncrementTick+0x62>
 7e0:	80 91 78 00 	lds	r24, 0x0078	; 0x800078 <pxDelayedTaskList>
 7e4:	90 91 79 00 	lds	r25, 0x0079	; 0x800079 <pxDelayedTaskList+0x1>
 7e8:	20 91 76 00 	lds	r18, 0x0076	; 0x800076 <pxOverflowDelayedTaskList>
 7ec:	30 91 77 00 	lds	r19, 0x0077	; 0x800077 <pxOverflowDelayedTaskList+0x1>
 7f0:	30 93 79 00 	sts	0x0079, r19	; 0x800079 <pxDelayedTaskList+0x1>
 7f4:	20 93 78 00 	sts	0x0078, r18	; 0x800078 <pxDelayedTaskList>
 7f8:	90 93 77 00 	sts	0x0077, r25	; 0x800077 <pxOverflowDelayedTaskList+0x1>
 7fc:	80 93 76 00 	sts	0x0076, r24	; 0x800076 <pxOverflowDelayedTaskList>
 800:	80 91 70 00 	lds	r24, 0x0070	; 0x800070 <xNumOfOverflows>
 804:	8f 5f       	subi	r24, 0xFF	; 255
 806:	80 93 70 00 	sts	0x0070, r24	; 0x800070 <xNumOfOverflows>
 80a:	0e 94 b7 03 	call	0x76e	; 0x76e <prvResetNextTaskUnblockTime>
 80e:	80 91 6e 00 	lds	r24, 0x006E	; 0x80006e <xNextTaskUnblockTime>
 812:	90 91 6f 00 	lds	r25, 0x006F	; 0x80006f <xNextTaskUnblockTime+0x1>
 816:	e8 16       	cp	r14, r24
 818:	f9 06       	cpc	r15, r25
 81a:	10 f4       	brcc	.+4      	; 0x820 <xTaskIncrementTick+0x74>
 81c:	d1 2c       	mov	r13, r1
 81e:	53 c0       	rjmp	.+166    	; 0x8c6 <__stack+0x67>
 820:	d1 2c       	mov	r13, r1
 822:	cc 24       	eor	r12, r12
 824:	c3 94       	inc	r12
 826:	e0 91 78 00 	lds	r30, 0x0078	; 0x800078 <pxDelayedTaskList>
 82a:	f0 91 79 00 	lds	r31, 0x0079	; 0x800079 <pxDelayedTaskList+0x1>
 82e:	80 81       	ld	r24, Z
 830:	81 11       	cpse	r24, r1
 832:	07 c0       	rjmp	.+14     	; 0x842 <xTaskIncrementTick+0x96>
 834:	8f ef       	ldi	r24, 0xFF	; 255
 836:	9f ef       	ldi	r25, 0xFF	; 255
 838:	90 93 6f 00 	sts	0x006F, r25	; 0x80006f <xNextTaskUnblockTime+0x1>
 83c:	80 93 6e 00 	sts	0x006E, r24	; 0x80006e <xNextTaskUnblockTime>
 840:	42 c0       	rjmp	.+132    	; 0x8c6 <__stack+0x67>
 842:	e0 91 78 00 	lds	r30, 0x0078	; 0x800078 <pxDelayedTaskList>
 846:	f0 91 79 00 	lds	r31, 0x0079	; 0x800079 <pxDelayedTaskList+0x1>
 84a:	05 80       	ldd	r0, Z+5	; 0x05
 84c:	f6 81       	ldd	r31, Z+6	; 0x06
 84e:	e0 2d       	mov	r30, r0
 850:	c6 81       	ldd	r28, Z+6	; 0x06
 852:	d7 81       	ldd	r29, Z+7	; 0x07
 854:	8a 81       	ldd	r24, Y+2	; 0x02
 856:	9b 81       	ldd	r25, Y+3	; 0x03
 858:	e8 16       	cp	r14, r24
 85a:	f9 06       	cpc	r15, r25
 85c:	28 f4       	brcc	.+10     	; 0x868 <__stack+0x9>
 85e:	90 93 6f 00 	sts	0x006F, r25	; 0x80006f <xNextTaskUnblockTime+0x1>
 862:	80 93 6e 00 	sts	0x006E, r24	; 0x80006e <xNextTaskUnblockTime>
 866:	2f c0       	rjmp	.+94     	; 0x8c6 <__stack+0x67>
 868:	8e 01       	movw	r16, r28
 86a:	0e 5f       	subi	r16, 0xFE	; 254
 86c:	1f 4f       	sbci	r17, 0xFF	; 255
 86e:	c8 01       	movw	r24, r16
 870:	0e 94 32 03 	call	0x664	; 0x664 <uxListRemove>
 874:	8c 89       	ldd	r24, Y+20	; 0x14
 876:	9d 89       	ldd	r25, Y+21	; 0x15
 878:	89 2b       	or	r24, r25
 87a:	21 f0       	breq	.+8      	; 0x884 <__stack+0x25>
 87c:	ce 01       	movw	r24, r28
 87e:	0c 96       	adiw	r24, 0x0c	; 12
 880:	0e 94 32 03 	call	0x664	; 0x664 <uxListRemove>
 884:	8e 89       	ldd	r24, Y+22	; 0x16
 886:	90 91 73 00 	lds	r25, 0x0073	; 0x800073 <uxTopReadyPriority>
 88a:	98 17       	cp	r25, r24
 88c:	10 f4       	brcc	.+4      	; 0x892 <__stack+0x33>
 88e:	80 93 73 00 	sts	0x0073, r24	; 0x800073 <uxTopReadyPriority>
 892:	90 e0       	ldi	r25, 0x00	; 0
 894:	9c 01       	movw	r18, r24
 896:	22 0f       	add	r18, r18
 898:	33 1f       	adc	r19, r19
 89a:	22 0f       	add	r18, r18
 89c:	33 1f       	adc	r19, r19
 89e:	22 0f       	add	r18, r18
 8a0:	33 1f       	adc	r19, r19
 8a2:	82 0f       	add	r24, r18
 8a4:	93 1f       	adc	r25, r19
 8a6:	b8 01       	movw	r22, r16
 8a8:	86 58       	subi	r24, 0x86	; 134
 8aa:	9f 4f       	sbci	r25, 0xFF	; 255
 8ac:	0e 94 11 03 	call	0x622	; 0x622 <vListInsertEnd>
 8b0:	e0 91 8c 00 	lds	r30, 0x008C	; 0x80008c <pxCurrentTCB>
 8b4:	f0 91 8d 00 	lds	r31, 0x008D	; 0x80008d <pxCurrentTCB+0x1>
 8b8:	9e 89       	ldd	r25, Y+22	; 0x16
 8ba:	86 89       	ldd	r24, Z+22	; 0x16
 8bc:	98 17       	cp	r25, r24
 8be:	08 f4       	brcc	.+2      	; 0x8c2 <__stack+0x63>
 8c0:	b2 cf       	rjmp	.-156    	; 0x826 <xTaskIncrementTick+0x7a>
 8c2:	dc 2c       	mov	r13, r12
 8c4:	b0 cf       	rjmp	.-160    	; 0x826 <xTaskIncrementTick+0x7a>
 8c6:	e0 91 8c 00 	lds	r30, 0x008C	; 0x80008c <pxCurrentTCB>
 8ca:	f0 91 8d 00 	lds	r31, 0x008D	; 0x80008d <pxCurrentTCB+0x1>
 8ce:	86 89       	ldd	r24, Z+22	; 0x16
 8d0:	90 e0       	ldi	r25, 0x00	; 0
 8d2:	fc 01       	movw	r30, r24
 8d4:	ee 0f       	add	r30, r30
 8d6:	ff 1f       	adc	r31, r31
 8d8:	ee 0f       	add	r30, r30
 8da:	ff 1f       	adc	r31, r31
 8dc:	ee 0f       	add	r30, r30
 8de:	ff 1f       	adc	r31, r31
 8e0:	8e 0f       	add	r24, r30
 8e2:	9f 1f       	adc	r25, r31
 8e4:	fc 01       	movw	r30, r24
 8e6:	e6 58       	subi	r30, 0x86	; 134
 8e8:	ff 4f       	sbci	r31, 0xFF	; 255
 8ea:	80 81       	ld	r24, Z
 8ec:	82 30       	cpi	r24, 0x02	; 2
 8ee:	48 f0       	brcs	.+18     	; 0x902 <__stack+0xa3>
 8f0:	dd 24       	eor	r13, r13
 8f2:	d3 94       	inc	r13
 8f4:	06 c0       	rjmp	.+12     	; 0x902 <__stack+0xa3>
 8f6:	80 91 72 00 	lds	r24, 0x0072	; 0x800072 <uxPendedTicks>
 8fa:	8f 5f       	subi	r24, 0xFF	; 255
 8fc:	80 93 72 00 	sts	0x0072, r24	; 0x800072 <uxPendedTicks>
 900:	d1 2c       	mov	r13, r1
 902:	80 91 71 00 	lds	r24, 0x0071	; 0x800071 <xYieldPending>
 906:	88 23       	and	r24, r24
 908:	11 f0       	breq	.+4      	; 0x90e <__stack+0xaf>
 90a:	dd 24       	eor	r13, r13
 90c:	d3 94       	inc	r13
 90e:	8d 2d       	mov	r24, r13
 910:	df 91       	pop	r29
 912:	cf 91       	pop	r28
 914:	1f 91       	pop	r17
 916:	0f 91       	pop	r16
 918:	ff 90       	pop	r15
 91a:	ef 90       	pop	r14
 91c:	df 90       	pop	r13
 91e:	cf 90       	pop	r12
 920:	08 95       	ret

00000922 <vTaskSwitchContext>:
#endif /* configUSE_APPLICATION_TASK_TAG */
/*-----------------------------------------------------------*/

void vTaskSwitchContext( void )
{
	if( uxSchedulerSuspended != ( UBaseType_t ) pdFALSE )
 922:	80 91 6d 00 	lds	r24, 0x006D	; 0x80006d <uxSchedulerSuspended>
 926:	88 23       	and	r24, r24
 928:	21 f0       	breq	.+8      	; 0x932 <vTaskSwitchContext+0x10>
	{
		/* The scheduler is currently suspended - do not allow a context
		switch. */
		xYieldPending = pdTRUE;
 92a:	81 e0       	ldi	r24, 0x01	; 1
 92c:	80 93 71 00 	sts	0x0071, r24	; 0x800071 <xYieldPending>
 930:	08 95       	ret
	}
	else
	{
		xYieldPending = pdFALSE;
 932:	10 92 71 00 	sts	0x0071, r1	; 0x800071 <xYieldPending>
		/* Check for stack overflow, if configured. */
		taskCHECK_FOR_STACK_OVERFLOW();

		/* Select a new task to run using either the generic C or port
		optimised asm code. */
		taskSELECT_HIGHEST_PRIORITY_TASK();
 936:	20 91 73 00 	lds	r18, 0x0073	; 0x800073 <uxTopReadyPriority>
 93a:	82 2f       	mov	r24, r18
 93c:	90 e0       	ldi	r25, 0x00	; 0
 93e:	fc 01       	movw	r30, r24
 940:	ee 0f       	add	r30, r30
 942:	ff 1f       	adc	r31, r31
 944:	ee 0f       	add	r30, r30
 946:	ff 1f       	adc	r31, r31
 948:	ee 0f       	add	r30, r30
 94a:	ff 1f       	adc	r31, r31
 94c:	e8 0f       	add	r30, r24
 94e:	f9 1f       	adc	r31, r25
 950:	e6 58       	subi	r30, 0x86	; 134
 952:	ff 4f       	sbci	r31, 0xFF	; 255
 954:	30 81       	ld	r19, Z
 956:	31 11       	cpse	r19, r1
 958:	11 c0       	rjmp	.+34     	; 0x97c <vTaskSwitchContext+0x5a>
 95a:	21 50       	subi	r18, 0x01	; 1
 95c:	82 2f       	mov	r24, r18
 95e:	90 e0       	ldi	r25, 0x00	; 0
 960:	fc 01       	movw	r30, r24
 962:	ee 0f       	add	r30, r30
 964:	ff 1f       	adc	r31, r31
 966:	ee 0f       	add	r30, r30
 968:	ff 1f       	adc	r31, r31
 96a:	ee 0f       	add	r30, r30
 96c:	ff 1f       	adc	r31, r31
 96e:	e8 0f       	add	r30, r24
 970:	f9 1f       	adc	r31, r25
 972:	e6 58       	subi	r30, 0x86	; 134
 974:	ff 4f       	sbci	r31, 0xFF	; 255
 976:	30 81       	ld	r19, Z
 978:	33 23       	and	r19, r19
 97a:	79 f3       	breq	.-34     	; 0x95a <vTaskSwitchContext+0x38>
 97c:	ac 01       	movw	r20, r24
 97e:	44 0f       	add	r20, r20
 980:	55 1f       	adc	r21, r21
 982:	44 0f       	add	r20, r20
 984:	55 1f       	adc	r21, r21
 986:	44 0f       	add	r20, r20
 988:	55 1f       	adc	r21, r21
 98a:	48 0f       	add	r20, r24
 98c:	59 1f       	adc	r21, r25
 98e:	da 01       	movw	r26, r20
 990:	a6 58       	subi	r26, 0x86	; 134
 992:	bf 4f       	sbci	r27, 0xFF	; 255
 994:	11 96       	adiw	r26, 0x01	; 1
 996:	ed 91       	ld	r30, X+
 998:	fc 91       	ld	r31, X
 99a:	12 97       	sbiw	r26, 0x02	; 2
 99c:	02 80       	ldd	r0, Z+2	; 0x02
 99e:	f3 81       	ldd	r31, Z+3	; 0x03
 9a0:	e0 2d       	mov	r30, r0
 9a2:	12 96       	adiw	r26, 0x02	; 2
 9a4:	fc 93       	st	X, r31
 9a6:	ee 93       	st	-X, r30
 9a8:	11 97       	sbiw	r26, 0x01	; 1
 9aa:	43 58       	subi	r20, 0x83	; 131
 9ac:	5f 4f       	sbci	r21, 0xFF	; 255
 9ae:	e4 17       	cp	r30, r20
 9b0:	f5 07       	cpc	r31, r21
 9b2:	29 f4       	brne	.+10     	; 0x9be <vTaskSwitchContext+0x9c>
 9b4:	42 81       	ldd	r20, Z+2	; 0x02
 9b6:	53 81       	ldd	r21, Z+3	; 0x03
 9b8:	fd 01       	movw	r30, r26
 9ba:	52 83       	std	Z+2, r21	; 0x02
 9bc:	41 83       	std	Z+1, r20	; 0x01
 9be:	fc 01       	movw	r30, r24
 9c0:	ee 0f       	add	r30, r30
 9c2:	ff 1f       	adc	r31, r31
 9c4:	ee 0f       	add	r30, r30
 9c6:	ff 1f       	adc	r31, r31
 9c8:	ee 0f       	add	r30, r30
 9ca:	ff 1f       	adc	r31, r31
 9cc:	8e 0f       	add	r24, r30
 9ce:	9f 1f       	adc	r25, r31
 9d0:	fc 01       	movw	r30, r24
 9d2:	e6 58       	subi	r30, 0x86	; 134
 9d4:	ff 4f       	sbci	r31, 0xFF	; 255
 9d6:	01 80       	ldd	r0, Z+1	; 0x01
 9d8:	f2 81       	ldd	r31, Z+2	; 0x02
 9da:	e0 2d       	mov	r30, r0
 9dc:	86 81       	ldd	r24, Z+6	; 0x06
 9de:	97 81       	ldd	r25, Z+7	; 0x07
 9e0:	90 93 8d 00 	sts	0x008D, r25	; 0x80008d <pxCurrentTCB+0x1>
 9e4:	80 93 8c 00 	sts	0x008C, r24	; 0x80008c <pxCurrentTCB>
 9e8:	20 93 73 00 	sts	0x0073, r18	; 0x800073 <uxTopReadyPriority>
 9ec:	08 95       	ret

000009ee <__cmpsf2>:
 9ee:	0e 94 ab 05 	call	0xb56	; 0xb56 <__fp_cmp>
 9f2:	08 f4       	brcc	.+2      	; 0x9f6 <__cmpsf2+0x8>
 9f4:	81 e0       	ldi	r24, 0x01	; 1
 9f6:	08 95       	ret

000009f8 <__divsf3>:
 9f8:	0e 94 10 05 	call	0xa20	; 0xa20 <__divsf3x>
 9fc:	0c 94 e6 05 	jmp	0xbcc	; 0xbcc <__fp_round>
 a00:	0e 94 df 05 	call	0xbbe	; 0xbbe <__fp_pscB>
 a04:	58 f0       	brcs	.+22     	; 0xa1c <__divsf3+0x24>
 a06:	0e 94 d8 05 	call	0xbb0	; 0xbb0 <__fp_pscA>
 a0a:	40 f0       	brcs	.+16     	; 0xa1c <__divsf3+0x24>
 a0c:	29 f4       	brne	.+10     	; 0xa18 <__divsf3+0x20>
 a0e:	5f 3f       	cpi	r21, 0xFF	; 255
 a10:	29 f0       	breq	.+10     	; 0xa1c <__divsf3+0x24>
 a12:	0c 94 cf 05 	jmp	0xb9e	; 0xb9e <__fp_inf>
 a16:	51 11       	cpse	r21, r1
 a18:	0c 94 1a 06 	jmp	0xc34	; 0xc34 <__fp_szero>
 a1c:	0c 94 d5 05 	jmp	0xbaa	; 0xbaa <__fp_nan>

00000a20 <__divsf3x>:
 a20:	0e 94 f7 05 	call	0xbee	; 0xbee <__fp_split3>
 a24:	68 f3       	brcs	.-38     	; 0xa00 <__divsf3+0x8>

00000a26 <__divsf3_pse>:
 a26:	99 23       	and	r25, r25
 a28:	b1 f3       	breq	.-20     	; 0xa16 <__divsf3+0x1e>
 a2a:	55 23       	and	r21, r21
 a2c:	91 f3       	breq	.-28     	; 0xa12 <__divsf3+0x1a>
 a2e:	95 1b       	sub	r25, r21
 a30:	55 0b       	sbc	r21, r21
 a32:	bb 27       	eor	r27, r27
 a34:	aa 27       	eor	r26, r26
 a36:	62 17       	cp	r22, r18
 a38:	73 07       	cpc	r23, r19
 a3a:	84 07       	cpc	r24, r20
 a3c:	38 f0       	brcs	.+14     	; 0xa4c <__divsf3_pse+0x26>
 a3e:	9f 5f       	subi	r25, 0xFF	; 255
 a40:	5f 4f       	sbci	r21, 0xFF	; 255
 a42:	22 0f       	add	r18, r18
 a44:	33 1f       	adc	r19, r19
 a46:	44 1f       	adc	r20, r20
 a48:	aa 1f       	adc	r26, r26
 a4a:	a9 f3       	breq	.-22     	; 0xa36 <__divsf3_pse+0x10>
 a4c:	35 d0       	rcall	.+106    	; 0xab8 <__divsf3_pse+0x92>
 a4e:	0e 2e       	mov	r0, r30
 a50:	3a f0       	brmi	.+14     	; 0xa60 <__divsf3_pse+0x3a>
 a52:	e0 e8       	ldi	r30, 0x80	; 128
 a54:	32 d0       	rcall	.+100    	; 0xaba <__divsf3_pse+0x94>
 a56:	91 50       	subi	r25, 0x01	; 1
 a58:	50 40       	sbci	r21, 0x00	; 0
 a5a:	e6 95       	lsr	r30
 a5c:	00 1c       	adc	r0, r0
 a5e:	ca f7       	brpl	.-14     	; 0xa52 <__divsf3_pse+0x2c>
 a60:	2b d0       	rcall	.+86     	; 0xab8 <__divsf3_pse+0x92>
 a62:	fe 2f       	mov	r31, r30
 a64:	29 d0       	rcall	.+82     	; 0xab8 <__divsf3_pse+0x92>
 a66:	66 0f       	add	r22, r22
 a68:	77 1f       	adc	r23, r23
 a6a:	88 1f       	adc	r24, r24
 a6c:	bb 1f       	adc	r27, r27
 a6e:	26 17       	cp	r18, r22
 a70:	37 07       	cpc	r19, r23
 a72:	48 07       	cpc	r20, r24
 a74:	ab 07       	cpc	r26, r27
 a76:	b0 e8       	ldi	r27, 0x80	; 128
 a78:	09 f0       	breq	.+2      	; 0xa7c <__divsf3_pse+0x56>
 a7a:	bb 0b       	sbc	r27, r27
 a7c:	80 2d       	mov	r24, r0
 a7e:	bf 01       	movw	r22, r30
 a80:	ff 27       	eor	r31, r31
 a82:	93 58       	subi	r25, 0x83	; 131
 a84:	5f 4f       	sbci	r21, 0xFF	; 255
 a86:	3a f0       	brmi	.+14     	; 0xa96 <__divsf3_pse+0x70>
 a88:	9e 3f       	cpi	r25, 0xFE	; 254
 a8a:	51 05       	cpc	r21, r1
 a8c:	78 f0       	brcs	.+30     	; 0xaac <__divsf3_pse+0x86>
 a8e:	0c 94 cf 05 	jmp	0xb9e	; 0xb9e <__fp_inf>
 a92:	0c 94 1a 06 	jmp	0xc34	; 0xc34 <__fp_szero>
 a96:	5f 3f       	cpi	r21, 0xFF	; 255
 a98:	e4 f3       	brlt	.-8      	; 0xa92 <__divsf3_pse+0x6c>
 a9a:	98 3e       	cpi	r25, 0xE8	; 232
 a9c:	d4 f3       	brlt	.-12     	; 0xa92 <__divsf3_pse+0x6c>
 a9e:	86 95       	lsr	r24
 aa0:	77 95       	ror	r23
 aa2:	67 95       	ror	r22
 aa4:	b7 95       	ror	r27
 aa6:	f7 95       	ror	r31
 aa8:	9f 5f       	subi	r25, 0xFF	; 255
 aaa:	c9 f7       	brne	.-14     	; 0xa9e <__divsf3_pse+0x78>
 aac:	88 0f       	add	r24, r24
 aae:	91 1d       	adc	r25, r1
 ab0:	96 95       	lsr	r25
 ab2:	87 95       	ror	r24
 ab4:	97 f9       	bld	r25, 7
 ab6:	08 95       	ret
 ab8:	e1 e0       	ldi	r30, 0x01	; 1
 aba:	66 0f       	add	r22, r22
 abc:	77 1f       	adc	r23, r23
 abe:	88 1f       	adc	r24, r24
 ac0:	bb 1f       	adc	r27, r27
 ac2:	62 17       	cp	r22, r18
 ac4:	73 07       	cpc	r23, r19
 ac6:	84 07       	cpc	r24, r20
 ac8:	ba 07       	cpc	r27, r26
 aca:	20 f0       	brcs	.+8      	; 0xad4 <__divsf3_pse+0xae>
 acc:	62 1b       	sub	r22, r18
 ace:	73 0b       	sbc	r23, r19
 ad0:	84 0b       	sbc	r24, r20
 ad2:	ba 0b       	sbc	r27, r26
 ad4:	ee 1f       	adc	r30, r30
 ad6:	88 f7       	brcc	.-30     	; 0xaba <__divsf3_pse+0x94>
 ad8:	e0 95       	com	r30
 ada:	08 95       	ret

00000adc <__floatunsisf>:
 adc:	e8 94       	clt
 ade:	09 c0       	rjmp	.+18     	; 0xaf2 <__floatsisf+0x12>

00000ae0 <__floatsisf>:
 ae0:	97 fb       	bst	r25, 7
 ae2:	3e f4       	brtc	.+14     	; 0xaf2 <__floatsisf+0x12>
 ae4:	90 95       	com	r25
 ae6:	80 95       	com	r24
 ae8:	70 95       	com	r23
 aea:	61 95       	neg	r22
 aec:	7f 4f       	sbci	r23, 0xFF	; 255
 aee:	8f 4f       	sbci	r24, 0xFF	; 255
 af0:	9f 4f       	sbci	r25, 0xFF	; 255
 af2:	99 23       	and	r25, r25
 af4:	a9 f0       	breq	.+42     	; 0xb20 <__floatsisf+0x40>
 af6:	f9 2f       	mov	r31, r25
 af8:	96 e9       	ldi	r25, 0x96	; 150
 afa:	bb 27       	eor	r27, r27
 afc:	93 95       	inc	r25
 afe:	f6 95       	lsr	r31
 b00:	87 95       	ror	r24
 b02:	77 95       	ror	r23
 b04:	67 95       	ror	r22
 b06:	b7 95       	ror	r27
 b08:	f1 11       	cpse	r31, r1
 b0a:	f8 cf       	rjmp	.-16     	; 0xafc <__floatsisf+0x1c>
 b0c:	fa f4       	brpl	.+62     	; 0xb4c <__floatsisf+0x6c>
 b0e:	bb 0f       	add	r27, r27
 b10:	11 f4       	brne	.+4      	; 0xb16 <__floatsisf+0x36>
 b12:	60 ff       	sbrs	r22, 0
 b14:	1b c0       	rjmp	.+54     	; 0xb4c <__floatsisf+0x6c>
 b16:	6f 5f       	subi	r22, 0xFF	; 255
 b18:	7f 4f       	sbci	r23, 0xFF	; 255
 b1a:	8f 4f       	sbci	r24, 0xFF	; 255
 b1c:	9f 4f       	sbci	r25, 0xFF	; 255
 b1e:	16 c0       	rjmp	.+44     	; 0xb4c <__floatsisf+0x6c>
 b20:	88 23       	and	r24, r24
 b22:	11 f0       	breq	.+4      	; 0xb28 <__floatsisf+0x48>
 b24:	96 e9       	ldi	r25, 0x96	; 150
 b26:	11 c0       	rjmp	.+34     	; 0xb4a <__floatsisf+0x6a>
 b28:	77 23       	and	r23, r23
 b2a:	21 f0       	breq	.+8      	; 0xb34 <__floatsisf+0x54>
 b2c:	9e e8       	ldi	r25, 0x8E	; 142
 b2e:	87 2f       	mov	r24, r23
 b30:	76 2f       	mov	r23, r22
 b32:	05 c0       	rjmp	.+10     	; 0xb3e <__floatsisf+0x5e>
 b34:	66 23       	and	r22, r22
 b36:	71 f0       	breq	.+28     	; 0xb54 <__floatsisf+0x74>
 b38:	96 e8       	ldi	r25, 0x86	; 134
 b3a:	86 2f       	mov	r24, r22
 b3c:	70 e0       	ldi	r23, 0x00	; 0
 b3e:	60 e0       	ldi	r22, 0x00	; 0
 b40:	2a f0       	brmi	.+10     	; 0xb4c <__floatsisf+0x6c>
 b42:	9a 95       	dec	r25
 b44:	66 0f       	add	r22, r22
 b46:	77 1f       	adc	r23, r23
 b48:	88 1f       	adc	r24, r24
 b4a:	da f7       	brpl	.-10     	; 0xb42 <__floatsisf+0x62>
 b4c:	88 0f       	add	r24, r24
 b4e:	96 95       	lsr	r25
 b50:	87 95       	ror	r24
 b52:	97 f9       	bld	r25, 7
 b54:	08 95       	ret

00000b56 <__fp_cmp>:
 b56:	99 0f       	add	r25, r25
 b58:	00 08       	sbc	r0, r0
 b5a:	55 0f       	add	r21, r21
 b5c:	aa 0b       	sbc	r26, r26
 b5e:	e0 e8       	ldi	r30, 0x80	; 128
 b60:	fe ef       	ldi	r31, 0xFE	; 254
 b62:	16 16       	cp	r1, r22
 b64:	17 06       	cpc	r1, r23
 b66:	e8 07       	cpc	r30, r24
 b68:	f9 07       	cpc	r31, r25
 b6a:	c0 f0       	brcs	.+48     	; 0xb9c <__fp_cmp+0x46>
 b6c:	12 16       	cp	r1, r18
 b6e:	13 06       	cpc	r1, r19
 b70:	e4 07       	cpc	r30, r20
 b72:	f5 07       	cpc	r31, r21
 b74:	98 f0       	brcs	.+38     	; 0xb9c <__fp_cmp+0x46>
 b76:	62 1b       	sub	r22, r18
 b78:	73 0b       	sbc	r23, r19
 b7a:	84 0b       	sbc	r24, r20
 b7c:	95 0b       	sbc	r25, r21
 b7e:	39 f4       	brne	.+14     	; 0xb8e <__fp_cmp+0x38>
 b80:	0a 26       	eor	r0, r26
 b82:	61 f0       	breq	.+24     	; 0xb9c <__fp_cmp+0x46>
 b84:	23 2b       	or	r18, r19
 b86:	24 2b       	or	r18, r20
 b88:	25 2b       	or	r18, r21
 b8a:	21 f4       	brne	.+8      	; 0xb94 <__fp_cmp+0x3e>
 b8c:	08 95       	ret
 b8e:	0a 26       	eor	r0, r26
 b90:	09 f4       	brne	.+2      	; 0xb94 <__fp_cmp+0x3e>
 b92:	a1 40       	sbci	r26, 0x01	; 1
 b94:	a6 95       	lsr	r26
 b96:	8f ef       	ldi	r24, 0xFF	; 255
 b98:	81 1d       	adc	r24, r1
 b9a:	81 1d       	adc	r24, r1
 b9c:	08 95       	ret

00000b9e <__fp_inf>:
 b9e:	97 f9       	bld	r25, 7
 ba0:	9f 67       	ori	r25, 0x7F	; 127
 ba2:	80 e8       	ldi	r24, 0x80	; 128
 ba4:	70 e0       	ldi	r23, 0x00	; 0
 ba6:	60 e0       	ldi	r22, 0x00	; 0
 ba8:	08 95       	ret

00000baa <__fp_nan>:
 baa:	9f ef       	ldi	r25, 0xFF	; 255
 bac:	80 ec       	ldi	r24, 0xC0	; 192
 bae:	08 95       	ret

00000bb0 <__fp_pscA>:
 bb0:	00 24       	eor	r0, r0
 bb2:	0a 94       	dec	r0
 bb4:	16 16       	cp	r1, r22
 bb6:	17 06       	cpc	r1, r23
 bb8:	18 06       	cpc	r1, r24
 bba:	09 06       	cpc	r0, r25
 bbc:	08 95       	ret

00000bbe <__fp_pscB>:
 bbe:	00 24       	eor	r0, r0
 bc0:	0a 94       	dec	r0
 bc2:	12 16       	cp	r1, r18
 bc4:	13 06       	cpc	r1, r19
 bc6:	14 06       	cpc	r1, r20
 bc8:	05 06       	cpc	r0, r21
 bca:	08 95       	ret

00000bcc <__fp_round>:
 bcc:	09 2e       	mov	r0, r25
 bce:	03 94       	inc	r0
 bd0:	00 0c       	add	r0, r0
 bd2:	11 f4       	brne	.+4      	; 0xbd8 <__fp_round+0xc>
 bd4:	88 23       	and	r24, r24
 bd6:	52 f0       	brmi	.+20     	; 0xbec <__fp_round+0x20>
 bd8:	bb 0f       	add	r27, r27
 bda:	40 f4       	brcc	.+16     	; 0xbec <__fp_round+0x20>
 bdc:	bf 2b       	or	r27, r31
 bde:	11 f4       	brne	.+4      	; 0xbe4 <__fp_round+0x18>
 be0:	60 ff       	sbrs	r22, 0
 be2:	04 c0       	rjmp	.+8      	; 0xbec <__fp_round+0x20>
 be4:	6f 5f       	subi	r22, 0xFF	; 255
 be6:	7f 4f       	sbci	r23, 0xFF	; 255
 be8:	8f 4f       	sbci	r24, 0xFF	; 255
 bea:	9f 4f       	sbci	r25, 0xFF	; 255
 bec:	08 95       	ret

00000bee <__fp_split3>:
 bee:	57 fd       	sbrc	r21, 7
 bf0:	90 58       	subi	r25, 0x80	; 128
 bf2:	44 0f       	add	r20, r20
 bf4:	55 1f       	adc	r21, r21
 bf6:	59 f0       	breq	.+22     	; 0xc0e <__fp_splitA+0x10>
 bf8:	5f 3f       	cpi	r21, 0xFF	; 255
 bfa:	71 f0       	breq	.+28     	; 0xc18 <__fp_splitA+0x1a>
 bfc:	47 95       	ror	r20

00000bfe <__fp_splitA>:
 bfe:	88 0f       	add	r24, r24
 c00:	97 fb       	bst	r25, 7
 c02:	99 1f       	adc	r25, r25
 c04:	61 f0       	breq	.+24     	; 0xc1e <__fp_splitA+0x20>
 c06:	9f 3f       	cpi	r25, 0xFF	; 255
 c08:	79 f0       	breq	.+30     	; 0xc28 <__fp_splitA+0x2a>
 c0a:	87 95       	ror	r24
 c0c:	08 95       	ret
 c0e:	12 16       	cp	r1, r18
 c10:	13 06       	cpc	r1, r19
 c12:	14 06       	cpc	r1, r20
 c14:	55 1f       	adc	r21, r21
 c16:	f2 cf       	rjmp	.-28     	; 0xbfc <__fp_split3+0xe>
 c18:	46 95       	lsr	r20
 c1a:	f1 df       	rcall	.-30     	; 0xbfe <__fp_splitA>
 c1c:	08 c0       	rjmp	.+16     	; 0xc2e <__fp_splitA+0x30>
 c1e:	16 16       	cp	r1, r22
 c20:	17 06       	cpc	r1, r23
 c22:	18 06       	cpc	r1, r24
 c24:	99 1f       	adc	r25, r25
 c26:	f1 cf       	rjmp	.-30     	; 0xc0a <__fp_splitA+0xc>
 c28:	86 95       	lsr	r24
 c2a:	71 05       	cpc	r23, r1
 c2c:	61 05       	cpc	r22, r1
 c2e:	08 94       	sec
 c30:	08 95       	ret

00000c32 <__fp_zero>:
 c32:	e8 94       	clt

00000c34 <__fp_szero>:
 c34:	bb 27       	eor	r27, r27
 c36:	66 27       	eor	r22, r22
 c38:	77 27       	eor	r23, r23
 c3a:	cb 01       	movw	r24, r22
 c3c:	97 f9       	bld	r25, 7
 c3e:	08 95       	ret

00000c40 <__gesf2>:
 c40:	0e 94 ab 05 	call	0xb56	; 0xb56 <__fp_cmp>
 c44:	08 f4       	brcc	.+2      	; 0xc48 <__gesf2+0x8>
 c46:	8f ef       	ldi	r24, 0xFF	; 255
 c48:	08 95       	ret

00000c4a <__mulsf3>:
 c4a:	0e 94 38 06 	call	0xc70	; 0xc70 <__mulsf3x>
 c4e:	0c 94 e6 05 	jmp	0xbcc	; 0xbcc <__fp_round>
 c52:	0e 94 d8 05 	call	0xbb0	; 0xbb0 <__fp_pscA>
 c56:	38 f0       	brcs	.+14     	; 0xc66 <__mulsf3+0x1c>
 c58:	0e 94 df 05 	call	0xbbe	; 0xbbe <__fp_pscB>
 c5c:	20 f0       	brcs	.+8      	; 0xc66 <__mulsf3+0x1c>
 c5e:	95 23       	and	r25, r21
 c60:	11 f0       	breq	.+4      	; 0xc66 <__mulsf3+0x1c>
 c62:	0c 94 cf 05 	jmp	0xb9e	; 0xb9e <__fp_inf>
 c66:	0c 94 d5 05 	jmp	0xbaa	; 0xbaa <__fp_nan>
 c6a:	11 24       	eor	r1, r1
 c6c:	0c 94 1a 06 	jmp	0xc34	; 0xc34 <__fp_szero>

00000c70 <__mulsf3x>:
 c70:	0e 94 f7 05 	call	0xbee	; 0xbee <__fp_split3>
 c74:	70 f3       	brcs	.-36     	; 0xc52 <__mulsf3+0x8>

00000c76 <__mulsf3_pse>:
 c76:	95 9f       	mul	r25, r21
 c78:	c1 f3       	breq	.-16     	; 0xc6a <__mulsf3+0x20>
 c7a:	95 0f       	add	r25, r21
 c7c:	50 e0       	ldi	r21, 0x00	; 0
 c7e:	55 1f       	adc	r21, r21
 c80:	62 9f       	mul	r22, r18
 c82:	f0 01       	movw	r30, r0
 c84:	72 9f       	mul	r23, r18
 c86:	bb 27       	eor	r27, r27
 c88:	f0 0d       	add	r31, r0
 c8a:	b1 1d       	adc	r27, r1
 c8c:	63 9f       	mul	r22, r19
 c8e:	aa 27       	eor	r26, r26
 c90:	f0 0d       	add	r31, r0
 c92:	b1 1d       	adc	r27, r1
 c94:	aa 1f       	adc	r26, r26
 c96:	64 9f       	mul	r22, r20
 c98:	66 27       	eor	r22, r22
 c9a:	b0 0d       	add	r27, r0
 c9c:	a1 1d       	adc	r26, r1
 c9e:	66 1f       	adc	r22, r22
 ca0:	82 9f       	mul	r24, r18
 ca2:	22 27       	eor	r18, r18
 ca4:	b0 0d       	add	r27, r0
 ca6:	a1 1d       	adc	r26, r1
 ca8:	62 1f       	adc	r22, r18
 caa:	73 9f       	mul	r23, r19
 cac:	b0 0d       	add	r27, r0
 cae:	a1 1d       	adc	r26, r1
 cb0:	62 1f       	adc	r22, r18
 cb2:	83 9f       	mul	r24, r19
 cb4:	a0 0d       	add	r26, r0
 cb6:	61 1d       	adc	r22, r1
 cb8:	22 1f       	adc	r18, r18
 cba:	74 9f       	mul	r23, r20
 cbc:	33 27       	eor	r19, r19
 cbe:	a0 0d       	add	r26, r0
 cc0:	61 1d       	adc	r22, r1
 cc2:	23 1f       	adc	r18, r19
 cc4:	84 9f       	mul	r24, r20
 cc6:	60 0d       	add	r22, r0
 cc8:	21 1d       	adc	r18, r1
 cca:	82 2f       	mov	r24, r18
 ccc:	76 2f       	mov	r23, r22
 cce:	6a 2f       	mov	r22, r26
 cd0:	11 24       	eor	r1, r1
 cd2:	9f 57       	subi	r25, 0x7F	; 127
 cd4:	50 40       	sbci	r21, 0x00	; 0
 cd6:	9a f0       	brmi	.+38     	; 0xcfe <__mulsf3_pse+0x88>
 cd8:	f1 f0       	breq	.+60     	; 0xd16 <__mulsf3_pse+0xa0>
 cda:	88 23       	and	r24, r24
 cdc:	4a f0       	brmi	.+18     	; 0xcf0 <__mulsf3_pse+0x7a>
 cde:	ee 0f       	add	r30, r30
 ce0:	ff 1f       	adc	r31, r31
 ce2:	bb 1f       	adc	r27, r27
 ce4:	66 1f       	adc	r22, r22
 ce6:	77 1f       	adc	r23, r23
 ce8:	88 1f       	adc	r24, r24
 cea:	91 50       	subi	r25, 0x01	; 1
 cec:	50 40       	sbci	r21, 0x00	; 0
 cee:	a9 f7       	brne	.-22     	; 0xcda <__mulsf3_pse+0x64>
 cf0:	9e 3f       	cpi	r25, 0xFE	; 254
 cf2:	51 05       	cpc	r21, r1
 cf4:	80 f0       	brcs	.+32     	; 0xd16 <__mulsf3_pse+0xa0>
 cf6:	0c 94 cf 05 	jmp	0xb9e	; 0xb9e <__fp_inf>
 cfa:	0c 94 1a 06 	jmp	0xc34	; 0xc34 <__fp_szero>
 cfe:	5f 3f       	cpi	r21, 0xFF	; 255
 d00:	e4 f3       	brlt	.-8      	; 0xcfa <__mulsf3_pse+0x84>
 d02:	98 3e       	cpi	r25, 0xE8	; 232
 d04:	d4 f3       	brlt	.-12     	; 0xcfa <__mulsf3_pse+0x84>
 d06:	86 95       	lsr	r24
 d08:	77 95       	ror	r23
 d0a:	67 95       	ror	r22
 d0c:	b7 95       	ror	r27
 d0e:	f7 95       	ror	r31
 d10:	e7 95       	ror	r30
 d12:	9f 5f       	subi	r25, 0xFF	; 255
 d14:	c1 f7       	brne	.-16     	; 0xd06 <__mulsf3_pse+0x90>
 d16:	fe 2b       	or	r31, r30
 d18:	88 0f       	add	r24, r24
 d1a:	91 1d       	adc	r25, r1
 d1c:	96 95       	lsr	r25
 d1e:	87 95       	ror	r24
 d20:	97 f9       	bld	r25, 7
 d22:	08 95       	ret

00000d24 <__divmodhi4>:
 d24:	97 fb       	bst	r25, 7
 d26:	07 2e       	mov	r0, r23
 d28:	16 f4       	brtc	.+4      	; 0xd2e <__divmodhi4+0xa>
 d2a:	00 94       	com	r0
 d2c:	07 d0       	rcall	.+14     	; 0xd3c <__divmodhi4_neg1>
 d2e:	77 fd       	sbrc	r23, 7
 d30:	09 d0       	rcall	.+18     	; 0xd44 <__divmodhi4_neg2>
 d32:	0e 94 a6 06 	call	0xd4c	; 0xd4c <__udivmodhi4>
 d36:	07 fc       	sbrc	r0, 7
 d38:	05 d0       	rcall	.+10     	; 0xd44 <__divmodhi4_neg2>
 d3a:	3e f4       	brtc	.+14     	; 0xd4a <__divmodhi4_exit>

00000d3c <__divmodhi4_neg1>:
 d3c:	90 95       	com	r25
 d3e:	81 95       	neg	r24
 d40:	9f 4f       	sbci	r25, 0xFF	; 255
 d42:	08 95       	ret

00000d44 <__divmodhi4_neg2>:
 d44:	70 95       	com	r23
 d46:	61 95       	neg	r22
 d48:	7f 4f       	sbci	r23, 0xFF	; 255

00000d4a <__divmodhi4_exit>:
 d4a:	08 95       	ret

00000d4c <__udivmodhi4>:
 d4c:	aa 1b       	sub	r26, r26
 d4e:	bb 1b       	sub	r27, r27
 d50:	51 e1       	ldi	r21, 0x11	; 17
 d52:	07 c0       	rjmp	.+14     	; 0xd62 <__udivmodhi4_ep>

00000d54 <__udivmodhi4_loop>:
 d54:	aa 1f       	adc	r26, r26
 d56:	bb 1f       	adc	r27, r27
 d58:	a6 17       	cp	r26, r22
 d5a:	b7 07       	cpc	r27, r23
 d5c:	10 f0       	brcs	.+4      	; 0xd62 <__udivmodhi4_ep>
 d5e:	a6 1b       	sub	r26, r22
 d60:	b7 0b       	sbc	r27, r23

00000d62 <__udivmodhi4_ep>:
 d62:	88 1f       	adc	r24, r24
 d64:	99 1f       	adc	r25, r25
 d66:	5a 95       	dec	r21
 d68:	a9 f7       	brne	.-22     	; 0xd54 <__udivmodhi4_loop>
 d6a:	80 95       	com	r24
 d6c:	90 95       	com	r25
 d6e:	bc 01       	movw	r22, r24
 d70:	cd 01       	movw	r24, r26
 d72:	08 95       	ret

00000d74 <_exit>:
 d74:	f8 94       	cli

00000d76 <__stop_program>:
 d76:	ff cf       	rjmp	.-2      	; 0xd76 <__stop_program>
